 IrrlichtWd

 Timestamp is 48ffe5fb (Wed Oct 22 22:48:27 2008)

 Preferred load address is 10000000

 Start         Length     Name                   Class
 0001:00000000 00064f0dH .textbss                DATA
 0002:00000000 000c8ba7H .text                   CODE
 0002:000c8bb0 00002360H .text$x                 CODE
 0002:000caf10 000054a8H .text$yc                CODE
 0002:000d03c0 00001746H .text$yd                CODE
 0003:00000000 00000104H .CRT$XCA                DATA
 0003:00000104 000004fcH .CRT$XCU                DATA
 0003:00000600 00000104H .CRT$XCZ                DATA
 0003:00000704 00000104H .CRT$XIA                DATA
 0003:00000808 00000104H .CRT$XIAA               DATA
 0003:0000090c 00000104H .CRT$XIC                DATA
 0003:00000a10 00000104H .CRT$XIZ                DATA
 0003:00000b20 0001afd5H .rdata                  DATA
 0003:0001baf8 0000017fH .rdata$debug            DATA
 0003:0001bc78 00001356H .rdata$r                DATA
 0003:0001cfd0 00000104H .rtc$IAA                DATA
 0003:0001d0d4 00000178H .rtc$IMZ                DATA
 0003:0001d24c 00000104H .rtc$IZZ                DATA
 0003:0001d350 00000104H .rtc$TAA                DATA
 0003:0001d454 00000178H .rtc$TMZ                DATA
 0003:0001d5cc 00000104H .rtc$TZZ                DATA
 0003:0001d6d0 00001022H .xdata$x                DATA
 0003:0001e700 00006fa4H .edata                  DATA
 0004:00000000 0000936dH .data                   DATA
 0004:00009380 00006100H .bss                    DATA
 0005:00000000 00000050H .idata$2                DATA
 0005:00000050 00000014H .idata$3                DATA
 0005:00000064 00000288H .idata$4                DATA
 0005:000002ec 00000288H .idata$5                DATA
 0005:00000574 00000a45H .idata$6                DATA

  Address         Publics by Value              Rva+Base       Lib:Object

 0000:00000000       ___safe_se_handler_table   00000000     <absolute>
 0000:00000000       ___safe_se_handler_count   00000000     <absolute>
 0000:00000000       __except_list              00000000     <absolute>
 0000:00009876       __ldused                   00009876     <absolute>
 0000:00009876       __fltused                  00009876     <absolute>
 0000:00000000       ___ImageBase               10000000     <linker-defined>
 0001:00000000       __enc$textbss$begin        10001000     <linker-defined>
 0001:00064f0d       __enc$textbss$end          10065f0d     <linker-defined>
 0002:00004780       ??_H@YGXPAXIHP6EPAX0@Z@Z   1006a780 f i animatedmesh.obj
 0002:000047f0       _ShadowVolume_SetMeshToRenderFrom 1006a7f0 f   animatedmesh.obj
 0002:00004860       ?GetNodeFromIntPtr@@YAPAVIAnimatedMeshSceneNode@scene@irr@@PAX@Z 1006a860 f   animatedmesh.obj
 0002:000048a0       _AnimatedMeshSceneNode_AddShadowVolumeSceneNode 1006a8a0 f   animatedmesh.obj
 0002:00004930       _AnimatedMeshSceneNode_GetFrameNr 1006a930 f   animatedmesh.obj
 0002:000049b0       _AnimatedMeshSceneNode_GetMS3DJointNode 1006a9b0 f   animatedmesh.obj
 0002:00004a30       _AnimatedMeshSceneNode_GetJointNode 1006aa30 f   animatedmesh.obj
 0002:00004ab0       _AnimatedMeshSceneNode_GetJointNodeA 1006aab0 f   animatedmesh.obj
 0002:00004b40       _AnimatedMeshSceneNode_SetJointMode 1006ab40 f   animatedmesh.obj
 0002:00004bc0       _AnimatedMeshSceneNode_AnimateJoints 1006abc0 f   animatedmesh.obj
 0002:00004c40       _AnimatedMeshSceneNode_GetXJointNode 1006ac40 f   animatedmesh.obj
 0002:00004cc0       _AnimatedMeshSceneNode_SetAnimationEndCallback 1006acc0 f   animatedmesh.obj
 0002:00004db0       ??0AnimationEnd@@QAE@XZ    1006adb0 f i animatedmesh.obj
 0002:00004ec0       ??0IReferenceCounted@irr@@QAE@XZ 1006aec0 f i animatedmesh.obj
 0002:00004f20       ??1IReferenceCounted@irr@@UAE@XZ 1006af20 f i animatedmesh.obj
 0002:00004f60       ??_GIReferenceCounted@irr@@UAEPAXI@Z 1006af60 f i animatedmesh.obj
 0002:00004f60       ??_EIReferenceCounted@irr@@UAEPAXI@Z 1006af60 f i animatedmesh.obj
 0002:00004fd0       ?OnAnimationEnd@AnimationEnd@@UAEXPAVIAnimatedMeshSceneNode@scene@irr@@@Z 1006afd0 f i animatedmesh.obj
 0002:00005040       ?setCallback@AnimationEnd@@QAEXP6GXPAX@Z@Z 1006b040 f i animatedmesh.obj
 0002:00005090       ??_GAnimationEnd@@UAEPAXI@Z 1006b090 f i animatedmesh.obj
 0002:00005090       ??_EAnimationEnd@@UAEPAXI@Z 1006b090 f i animatedmesh.obj
 0002:00005110       ??0IAnimationEndCallBack@scene@irr@@QAE@XZ 1006b110 f i animatedmesh.obj
 0002:000051c0       ??_DAnimationEnd@@QAEXXZ   1006b1c0 f i animatedmesh.obj
 0002:00005220       ??_GIAnimationEndCallBack@scene@irr@@UAEPAXI@Z 1006b220 f i animatedmesh.obj
 0002:00005220       ??_EIAnimationEndCallBack@scene@irr@@UAEPAXI@Z 1006b220 f i animatedmesh.obj
 0002:000052a0       ??1AnimationEnd@@UAE@XZ    1006b2a0 f i animatedmesh.obj
 0002:00005300       ??1IAnimationEndCallBack@scene@irr@@UAE@XZ 1006b300 f i animatedmesh.obj
 0002:00005340       ??_DIAnimationEndCallBack@scene@irr@@QAEXXZ 1006b340 f i animatedmesh.obj
 0002:000053a0       _AnimatedMeshSceneNode_SetAnimationSpeed 1006b3a0 f   animatedmesh.obj
 0002:00005430       _AnimatedMeshSceneNode_SetCurrentFrame 1006b430 f   animatedmesh.obj
 0002:000054c0       _AnimatedMeshSceneNode_SetFrameLoop 1006b4c0 f   animatedmesh.obj
 0002:00005550       _AnimatedMeshSceneNode_SetLoopMode 1006b550 f   animatedmesh.obj
 0002:000055d0       _AnimatedMeshSceneNode_SetMD2Animation 1006b5d0 f   animatedmesh.obj
 0002:00005650       _AnimatedMeshSceneNode_SetMD2AnimationA 1006b650 f   animatedmesh.obj
 0002:000056d0       _AnimatedMeshSceneNode_GetMesh 1006b6d0 f   animatedmesh.obj
 0002:00005750       ??0?$CMatrix4@M@core@irr@@QAE@W4eConstructor@012@@Z 1006b750 f i animatedmesh.obj
 0002:000057e0       ?makeIdentity@?$CMatrix4@M@core@irr@@QAEXXZ 1006b7e0 f i animatedmesh.obj
 0002:00005870       ??$?0D@?$string@DV?$irrAllocator@D@core@irr@@@core@irr@@QAE@QBD@Z 1006b870 f i animatedmesh.obj
 0002:00005950       ??1?$irrAllocator@D@core@irr@@UAE@XZ 1006b950 f i animatedmesh.obj
 0002:00005990       ?internal_new@?$irrAllocator@D@core@irr@@MAEPAXI@Z 1006b990 f i animatedmesh.obj
 0002:000059f0       ?internal_delete@?$irrAllocator@D@core@irr@@MAEXPAX@Z 1006b9f0 f i animatedmesh.obj
 0002:00005a50       ??0?$irrAllocator@D@core@irr@@QAE@XZ 1006ba50 f i animatedmesh.obj
 0002:00005aa0       ??_E?$irrAllocator@D@core@irr@@UAEPAXI@Z 1006baa0 f i animatedmesh.obj
 0002:00005aa0       ??_G?$irrAllocator@D@core@irr@@UAEPAXI@Z 1006baa0 f i animatedmesh.obj
 0002:00005b10       ??$?4D@?$string@DV?$irrAllocator@D@core@irr@@@core@irr@@QAEAAV012@QBD@Z 1006bb10 f i animatedmesh.obj
 0002:00005ca0       ?allocate@?$irrAllocator@D@core@irr@@QAEPADI@Z 1006bca0 f i animatedmesh.obj
 0002:00005d10       ?deallocate@?$irrAllocator@D@core@irr@@QAEXPAD@Z 1006bd10 f i animatedmesh.obj
 0002:00005d80       ??1?$string@DV?$irrAllocator@D@core@irr@@@core@irr@@QAE@XZ 1006bd80 f i animatedmesh.obj
 0002:00005e30       ?GetCameraFromIntPtr@@YAPAVICameraSceneNode@scene@irr@@PAX@Z 1006be30 f   camera.obj
 0002:00005e70       _Camera_GetAspectRation    1006be70 f   camera.obj
 0002:00005ef0       _Camera_GetFarValue        1006bef0 f   camera.obj
 0002:00005f70       _Camera_GetFOV             1006bf70 f   camera.obj
 0002:00005ff0       _Camera_GetNearValue       1006bff0 f   camera.obj
 0002:00006070       _Camera_GetProjectionMatrix 1006c070 f   camera.obj
 0002:00006110       _Camera_GetTarget          1006c110 f   camera.obj
 0002:000061b0       _Camera_GetUpVector        1006c1b0 f   camera.obj
 0002:00006250       _Camera_GetViewMatrix      1006c250 f   camera.obj
 0002:000062f0       _Camera_GetViewFrustrum    1006c2f0 f   camera.obj
 0002:00006370       _Camera_IsInputReceiverEnabled 1006c370 f   camera.obj
 0002:00006400       _Camera_IsOrthogonal       1006c400 f   camera.obj
 0002:00006490       _Camera_OnEvent            1006c490 f   camera.obj
 0002:00006520       _Camera_SetAspectRatio     1006c520 f   camera.obj
 0002:000065b0       _Camera_SetFarValue        1006c5b0 f   camera.obj
 0002:00006640       _Camera_SetFOV             1006c640 f   camera.obj
 0002:000066d0       _Camera_SetInputReceiverEnabled 1006c6d0 f   camera.obj
 0002:00006750       _Camera_SetIsOrthogonal    1006c750 f   camera.obj
 0002:000067b0       ?setIsOrthogonal@ICameraSceneNode@scene@irr@@QAEX_N@Z 1006c7b0 f i camera.obj
 0002:00006800       _Camera_SetNearValue       1006c800 f   camera.obj
 0002:00006890       _Camera_SetProjectionMatrix 1006c890 f   camera.obj
 0002:00006930       _Camera_SetTarget          1006c930 f   camera.obj
 0002:000069e0       _Camera_SetUpVector        1006c9e0 f   camera.obj
 0002:00006a90       _VF_GetBoundingBox         1006ca90 f   camera.obj
 0002:00006b00       ??0?$aabbox3d@M@core@irr@@QAE@ABV012@@Z 1006cb00 f i camera.obj
 0002:00006b70       ?getBoundingBox@SViewFrustum@scene@irr@@QBEABV?$aabbox3d@M@core@3@XZ 1006cb70 f i camera.obj
 0002:00006bb0       _VF_GetFarLeftUp           1006cbb0 f   camera.obj
 0002:00006c10       ?getFarLeftUp@SViewFrustum@scene@irr@@QBE?AV?$vector3d@M@core@3@XZ 1006cc10 f i camera.obj
 0002:00006cd0       _VF_GetFarLeftDown         1006ccd0 f   camera.obj
 0002:00006d30       ?getFarLeftDown@SViewFrustum@scene@irr@@QBE?AV?$vector3d@M@core@3@XZ 1006cd30 f i camera.obj
 0002:00006df0       _VF_GetFarRightDown        1006cdf0 f   camera.obj
 0002:00006e50       ?getFarRightDown@SViewFrustum@scene@irr@@QBE?AV?$vector3d@M@core@3@XZ 1006ce50 f i camera.obj
 0002:00006f10       _VF_GetFarRightUp          1006cf10 f   camera.obj
 0002:00006f70       ?getFarRightUp@SViewFrustum@scene@irr@@QBE?AV?$vector3d@M@core@3@XZ 1006cf70 f i camera.obj
 0002:00007030       _VF_RecalculateBoundingBox 1006d030 f   camera.obj
 0002:00007080       ?recalculateBoundingBox@SViewFrustum@scene@irr@@QAEXXZ 1006d080 f i camera.obj
 0002:00007160       _VF_Transform              1006d160 f   camera.obj
 0002:000071d0       ?transform@SViewFrustum@scene@irr@@QAEXABV?$CMatrix4@M@core@3@@Z 1006d1d0 f i camera.obj
 0002:00007270       _CameraFPS_SetRotateSpeed  1006d270 f   camera.obj
 0002:000072e0       _CameraFPS_SetMoveSpeed    1006d2e0 f   camera.obj
 0002:00007350       _CameraFPS_GetRotateSpeed  1006d350 f   camera.obj
 0002:000073b0       _CameraFPS_GetMoveSpeed    1006d3b0 f   camera.obj
 0002:00007410       ??0?$vector3d@M@core@irr@@QAE@XZ 1006d410 f i camera.obj
 0002:00007470       ??0?$vector3d@M@core@irr@@QAE@MMM@Z 1006d470 f i camera.obj
 0002:000074d0       ??0?$vector3d@M@core@irr@@QAE@ABV012@@Z 1006d4d0 f i camera.obj
 0002:00007540       ?addInternalPoint@?$aabbox3d@M@core@irr@@QAEXABV?$vector3d@M@23@@Z 1006d540 f i camera.obj
 0002:000075c0       ?reset@?$aabbox3d@M@core@irr@@QAEXABV?$vector3d@M@23@@Z 1006d5c0 f i camera.obj
 0002:00007630       ??4?$vector3d@M@core@irr@@QAEAAV012@ABV012@@Z 1006d630 f i camera.obj
 0002:000076a0       ?getIntersectionWithPlanes@?$plane3d@M@core@irr@@QBE_NABV123@0AAV?$vector3d@M@23@@Z 1006d6a0 f i camera.obj
 0002:000077a0       ?addInternalPoint@?$aabbox3d@M@core@irr@@QAEXMMM@Z 1006d7a0 f i camera.obj
 0002:000078a0       ?getIntersectionWithLine@?$plane3d@M@core@irr@@QBE_NABV?$vector3d@M@23@0AAV423@@Z 1006d8a0 f i camera.obj
 0002:00007970       ??H?$vector3d@M@core@irr@@QBE?AV012@ABV012@@Z 1006d970 f i camera.obj
 0002:00007a30       ??D?$vector3d@M@core@irr@@QBE?AV012@M@Z 1006da30 f i camera.obj
 0002:00007af0       ?dotProduct@?$vector3d@M@core@irr@@QBEMABV123@@Z 1006daf0 f i camera.obj
 0002:00007b70       ?getIntersectionWithPlane@?$plane3d@M@core@irr@@QBE_NABV123@AAV?$vector3d@M@23@1@Z 1006db70 f i camera.obj
 0002:00007d20       ?crossProduct@?$vector3d@M@core@irr@@QBE?AV123@ABV123@@Z 1006dd20 f i camera.obj
 0002:00007e10       ?getLength@?$vector3d@M@core@irr@@QBEMXZ 1006de10 f i camera.obj
 0002:00007eb0       ??0?$CMatrix4@M@core@irr@@QAE@ABV012@W4eConstructor@012@@Z 1006deb0 f i camera.obj
 0002:00008010       ??4?$CMatrix4@M@core@irr@@QAEAAV012@ABV012@@Z 1006e010 f i camera.obj
 0002:00008090       ?transformVect@?$CMatrix4@M@core@irr@@QBEXAAV?$vector3d@M@23@@Z 1006e090 f i camera.obj
 0002:000081e0       ?transformPlane@?$CMatrix4@M@core@irr@@QBEXAAV?$plane3d@M@23@@Z 1006e1e0 f i camera.obj
 0002:00008310       ??Z?$vector3d@M@core@irr@@QAEAAV012@ABV012@@Z 1006e310 f i camera.obj
 0002:00008390       ?getMemberPoint@?$plane3d@M@core@irr@@QBE?AV?$vector3d@M@23@XZ 1006e390 f i camera.obj
 0002:00008400       ?transformVect@?$CMatrix4@M@core@irr@@QBEXAAV?$vector3d@M@23@ABV423@@Z 1006e400 f i camera.obj
 0002:00008500       ?getInverse@?$CMatrix4@M@core@irr@@QBE_NAAV123@@Z 1006e500 f i camera.obj
 0002:0000a380       ?iszero@core@irr@@YA_NMM@Z 10070380 f i camera.obj
 0002:0000a410       _fabsf                     10070410 f i camera.obj
 0002:0000a480       ?reciprocal@core@irr@@YAMM@Z 10070480 f i camera.obj
 0002:0000a4d0       ??R?$CMatrix4@M@core@irr@@QAEAAMHH@Z 100704d0 f i camera.obj
 0002:0000a530       ??R?$CMatrix4@M@core@irr@@QBEABMHH@Z 10070530 f i camera.obj
 0002:0000a580       ?isIdentity@?$CMatrix4@M@core@irr@@QBE_NXZ 10070580 f i camera.obj
 0002:0000a750       ?equals@core@irr@@YA_NMMM@Z 10070750 f i camera.obj
 0002:0000a7d0       ?getTransposed@?$CMatrix4@M@core@irr@@QBEXAAV123@@Z 100707d0 f i camera.obj
 0002:0000a990       ??A?$CMatrix4@M@core@irr@@QAEAAMI@Z 10070990 f i camera.obj
 0002:0000a9e0       ?getTransposed@?$CMatrix4@M@core@irr@@QBE?AV123@XZ 100709e0 f i camera.obj
 0002:0000aa90       ??0CGUITTGlyph@gui@irr@@QAE@XZ 10070a90 f   CGUITTFont.obj
 0002:0000ab20       ??_ECGUITTGlyph@gui@irr@@UAEPAXI@Z 10070b20 f i CGUITTFont.obj
 0002:0000ab20       ??_GCGUITTGlyph@gui@irr@@UAEPAXI@Z 10070b20 f i CGUITTFont.obj
 0002:0000ab90       ??1CGUITTGlyph@gui@irr@@UAE@XZ 10070b90 f   CGUITTFont.obj
 0002:0000acd0       ?init@CGUITTGlyph@gui@irr@@QAEXXZ 10070cd0 f   CGUITTFont.obj
 0002:0000ad50       ?setDebugName@IReferenceCounted@irr@@IAEXPBD@Z 10070d50 f i CGUITTFont.obj
 0002:0000ada0       ?cache@CGUITTGlyph@gui@irr@@QAEXI@Z 10070da0 f   CGUITTFont.obj
 0002:0000bb90       ??0SColor@video@irr@@QAE@IIII@Z 10071b90 f i CGUITTFont.obj
 0002:0000bc10       ?drop@IReferenceCounted@irr@@QBE_NXZ 10071c10 f i CGUITTFont.obj
 0002:0000bcf0       ??0CGUITTFont@gui@irr@@QAE@PAVIVideoDriver@video@2@@Z 10071cf0 f   CGUITTFont.obj
 0002:0000bea0       ?grab@IReferenceCounted@irr@@QBEXXZ 10071ea0 f i CGUITTFont.obj
 0002:0000bef0       ??1IGUIFont@gui@irr@@UAE@XZ 10071ef0 f i CGUITTFont.obj
 0002:0000bf50       ?getType@IGUIFont@gui@irr@@UBE?AW4EGUI_FONT_TYPE@23@XZ 10071f50 f i CGUITTFont.obj
 0002:0000bf90       ??_GIGUIFont@gui@irr@@UAEPAXI@Z 10071f90 f i CGUITTFont.obj
 0002:0000bf90       ??_EIGUIFont@gui@irr@@UAEPAXI@Z 10071f90 f i CGUITTFont.obj
 0002:0000c010       ??_DIGUIFont@gui@irr@@QAEXXZ 10072010 f i CGUITTFont.obj
 0002:0000c070       ??_GCGUITTFont@gui@irr@@UAEPAXI@Z 10072070 f i CGUITTFont.obj
 0002:0000c070       ??_ECGUITTFont@gui@irr@@UAEPAXI@Z 10072070 f i CGUITTFont.obj
 0002:0000c0f0       ??0IGUIFont@gui@irr@@QAE@XZ 100720f0 f i CGUITTFont.obj
 0002:0000c1a0       ??_DCGUITTFont@gui@irr@@QAEXXZ 100721a0 f i CGUITTFont.obj
 0002:0000c200       ??1CGUITTFont@gui@irr@@UAE@XZ 10072200 f   CGUITTFont.obj
 0002:0000c330       ??0CGUITTFace@gui@irr@@QAE@XZ 10072330 f   CGUITTFont.obj
 0002:0000c3f0       ??_ECGUITTFace@gui@irr@@UAEPAXI@Z 100723f0 f i CGUITTFont.obj
 0002:0000c3f0       ??_GCGUITTFace@gui@irr@@UAEPAXI@Z 100723f0 f i CGUITTFont.obj
 0002:0000c460       ??1CGUITTFace@gui@irr@@UAE@XZ 10072460 f   CGUITTFont.obj
 0002:0000c4f0       ?load@CGUITTFace@gui@irr@@QAE_NPBD@Z 100724f0 f   CGUITTFont.obj
 0002:0000c590       ?attach@CGUITTFont@gui@irr@@QAE_NPAVCGUITTFace@23@I@Z 10072590 f   CGUITTFont.obj
 0002:0000c820       ?getGlyphByChar@CGUITTFont@gui@irr@@AAEI_W@Z 10072820 f   CGUITTFont.obj
 0002:0000c8e0       ?getDimension@CGUITTFont@gui@irr@@UBE?AV?$dimension2d@H@core@3@PB_W@Z 100728e0 f   CGUITTFont.obj
 0002:0000ca00       ?getWidthFromCharacter@CGUITTFont@gui@irr@@ABEH_W@Z 10072a00 f i CGUITTFont.obj
 0002:0000cb00       ?draw@CGUITTFont@gui@irr@@UAEXPB_WABV?$rect@H@core@3@VSColor@video@3@_N3PBV453@@Z 10072b00 f   CGUITTFont.obj
 0002:0000d330       ??0SColor@video@irr@@QAE@XZ 10073330 f i CGUITTFont.obj
 0002:0000d370       ?getAlpha@SColor@video@irr@@QBEIXZ 10073370 f i CGUITTFont.obj
 0002:0000d3b0       ?getRed@SColor@video@irr@@QBEIXZ 100733b0 f i CGUITTFont.obj
 0002:0000d400       ?getGreen@SColor@video@irr@@QBEIXZ 10073400 f i CGUITTFont.obj
 0002:0000d450       ?getBlue@SColor@video@irr@@QBEIXZ 10073450 f i CGUITTFont.obj
 0002:0000d4a0       ?getCharacterFromPos@CGUITTFont@gui@irr@@UBEHPB_WH@Z 100734a0 f   CGUITTFont.obj
 0002:0000d550       ?setKerningWidth@CGUITTFont@gui@irr@@UAEXH@Z 10073550 f   CGUITTFont.obj
 0002:0000d5a0       ?getKerningWidth@CGUITTFont@gui@irr@@UBEHPB_W0@Z 100735a0 f   CGUITTFont.obj
 0002:0000d5e0       ?setKerningHeight@CGUITTFont@gui@irr@@UAEXH@Z 100735e0 f   CGUITTFont.obj
 0002:0000d630       ?getKerningHeight@CGUITTFont@gui@irr@@UBEHXZ 10073630 f   CGUITTFont.obj
 0002:0000d670       ?createBillboard@CGUITTFont@gui@irr@@QAEPAVISceneNode@scene@3@PB_WV?$dimension2d@M@core@3@PAVISceneManager@53@PAV453@H@Z 10073670 f   CGUITTFont.obj
 0002:0000dba0       ??0SColor@video@irr@@QAE@I@Z 10073ba0 f i CGUITTFont.obj
 0002:0000dbf0       ?setMaterialTexture@ISceneNode@scene@irr@@QAEXIPAVITexture@video@3@@Z 10073bf0 f i CGUITTFont.obj
 0002:0000dcb0       ?setTexture@SMaterial@video@irr@@QAEXIPAVITexture@23@@Z 10073cb0 f i CGUITTFont.obj
 0002:0000dd10       ?setMaterialType@ISceneNode@scene@irr@@QAEXW4E_MATERIAL_TYPE@video@3@@Z 10073d10 f i CGUITTFont.obj
 0002:0000ddc0       ??0?$dimension2d@M@core@irr@@QAE@ABM0@Z 10073dc0 f i CGUITTFont.obj
 0002:0000de20       ??0?$dimension2d@H@core@irr@@QAE@XZ 10073e20 f i CGUITTFont.obj
 0002:0000de70       ??0?$dimension2d@H@core@irr@@QAE@ABH0@Z 10073e70 f i CGUITTFont.obj
 0002:0000ded0       ??0?$rect@H@core@irr@@QAE@HHHH@Z 10073ed0 f i CGUITTFont.obj
 0002:0000df50       ?isPointInside@?$rect@H@core@irr@@QBE_NABV?$position2d@H@23@@Z 10073f50 f i CGUITTFont.obj
 0002:0000dff0       ?getWidth@?$rect@H@core@irr@@QBEHXZ 10073ff0 f i CGUITTFont.obj
 0002:0000e040       ?getHeight@?$rect@H@core@irr@@QBEHXZ 10074040 f i CGUITTFont.obj
 0002:0000e090       ??0?$position2d@H@core@irr@@QAE@HH@Z 10074090 f i CGUITTFont.obj
 0002:0000e0e0       ??0?$position2d@H@core@irr@@QAE@ABV012@@Z 100740e0 f i CGUITTFont.obj
 0002:0000e140       ??0?$array@VCGUITTGlyph@gui@irr@@V?$irrAllocator@VCGUITTGlyph@gui@irr@@@core@3@@core@irr@@QAE@XZ 10074140 f i CGUITTFont.obj
 0002:0000e1d0       ??1?$array@VCGUITTGlyph@gui@irr@@V?$irrAllocator@VCGUITTGlyph@gui@irr@@@core@3@@core@irr@@QAE@XZ 100741d0 f i CGUITTFont.obj
 0002:0000e2d0       ?reallocate@?$array@VCGUITTGlyph@gui@irr@@V?$irrAllocator@VCGUITTGlyph@gui@irr@@@core@3@@core@irr@@QAEXI@Z 100742d0 f i CGUITTFont.obj
 0002:0000e440       ?set_used@?$array@VCGUITTGlyph@gui@irr@@V?$irrAllocator@VCGUITTGlyph@gui@irr@@@core@3@@core@irr@@QAEXI@Z 10074440 f i CGUITTFont.obj
 0002:0000e4b0       ??A?$array@VCGUITTGlyph@gui@irr@@V?$irrAllocator@VCGUITTGlyph@gui@irr@@@core@3@@core@irr@@QAEAAVCGUITTGlyph@gui@2@I@Z 100744b0 f i CGUITTFont.obj
 0002:0000e520       ??A?$array@VCGUITTGlyph@gui@irr@@V?$irrAllocator@VCGUITTGlyph@gui@irr@@@core@3@@core@irr@@QBEABVCGUITTGlyph@gui@2@I@Z 10074520 f i CGUITTFont.obj
 0002:0000e590       ??1?$irrAllocator@VCGUITTGlyph@gui@irr@@@core@irr@@UAE@XZ 10074590 f i CGUITTFont.obj
 0002:0000e5d0       ?internal_new@?$irrAllocator@VCGUITTGlyph@gui@irr@@@core@irr@@MAEPAXI@Z 100745d0 f i CGUITTFont.obj
 0002:0000e630       ?internal_delete@?$irrAllocator@VCGUITTGlyph@gui@irr@@@core@irr@@MAEXPAX@Z 10074630 f i CGUITTFont.obj
 0002:0000e690       ??0?$irrAllocator@VCGUITTGlyph@gui@irr@@@core@irr@@QAE@XZ 10074690 f i CGUITTFont.obj
 0002:0000e6e0       ??_E?$irrAllocator@VCGUITTGlyph@gui@irr@@@core@irr@@UAEPAXI@Z 100746e0 f i CGUITTFont.obj
 0002:0000e6e0       ??_G?$irrAllocator@VCGUITTGlyph@gui@irr@@@core@irr@@UAEPAXI@Z 100746e0 f i CGUITTFont.obj
 0002:0000e750       ?allocate@?$irrAllocator@VCGUITTGlyph@gui@irr@@@core@irr@@QAEPAVCGUITTGlyph@gui@3@I@Z 10074750 f i CGUITTFont.obj
 0002:0000e7c0       ?deallocate@?$irrAllocator@VCGUITTGlyph@gui@irr@@@core@irr@@QAEXPAVCGUITTGlyph@gui@3@@Z 100747c0 f i CGUITTFont.obj
 0002:0000e830       ?construct@?$irrAllocator@VCGUITTGlyph@gui@irr@@@core@irr@@QAEXPAVCGUITTGlyph@gui@3@ABV453@@Z 10074830 f i CGUITTFont.obj
 0002:0000e8d0       ??2@YAPAXIPAX@Z            100748d0 f i CGUITTFont.obj
 0002:0000e910       ?destruct@?$irrAllocator@VCGUITTGlyph@gui@irr@@@core@irr@@QAEXPAVCGUITTGlyph@gui@3@@Z 10074910 f i CGUITTFont.obj
 0002:0000e980       ??0CGUITTGlyph@gui@irr@@QAE@ABV012@@Z 10074980 f i CGUITTFont.obj
 0002:0000eb20       ??0IReferenceCounted@irr@@QAE@ABV01@@Z 10074b20 f i CGUITTFont.obj
 0002:0000eb90       _freeUMMemory              10074b90 f   conversion.obj
 0002:0000ec20       _Pointer_SafeRelease       10074c20 f   conversion.obj
 0002:0000ec80       ?fixmarshal@@YA_N_N@Z      10074c80 f   conversion.obj
 0002:0000ecd0       ?IM_STRING@@YAPADV?$string@_WV?$irrAllocator@_W@core@irr@@@core@irr@@@Z 10074cd0 f   conversion.obj
 0002:0000ed90       ?MU_WCHAR@@YAPA_WPBD@Z     10074d90 f   conversion.obj
 0002:0000ef90       ?UM_STRING@@YAPADPB_W@Z    10074f90 f   conversion.obj
 0002:0000f180       ?UM_STRING@@YAPADPBD@Z     10075180 f   conversion.obj
 0002:0000f1c0       ?UM_DIM2DS@@YAXV?$dimension2d@H@core@irr@@PAH@Z 100751c0 f   conversion.obj
 0002:0000f210       ?UM_DIM2US@@YAXV?$dimension2d@I@core@irr@@PAH@Z 10075210 f   conversion.obj
 0002:0000f260       ?UM_DIM2DF@@YAXV?$dimension2d@M@core@irr@@PAM@Z 10075260 f   conversion.obj
 0002:0000f2b0       ?UM_POS2DS@@YAXV?$position2d@H@core@irr@@PAH@Z 100752b0 f   conversion.obj
 0002:0000f300       ?UM_POS2DF@@YAXV?$position2d@M@core@irr@@PAM@Z 10075300 f   conversion.obj
 0002:0000f350       ?UM_SCOLOR@@YAXVSColor@video@irr@@PAH@Z 10075350 f   conversion.obj
 0002:0000f3e0       ?UM_SCOLORF@@YAXVSColorf@video@irr@@PAM@Z 100753e0 f   conversion.obj
 0002:0000f440       ?UM_VECT3DF@@YAXV?$vector3d@M@core@irr@@PAM@Z 10075440 f   conversion.obj
 0002:0000f490       ?MU_MAT4@@YA?AV?$CMatrix4@M@core@irr@@PAM@Z 10075490 f   conversion.obj
 0002:0000f5a0       ?UM_MAT4@@YAXV?$CMatrix4@M@core@irr@@PAM@Z 100755a0 f   conversion.obj
 0002:0000f650       ?UM_BOX3D@@YAXV?$aabbox3d@M@core@irr@@PAM@Z 10075650 f   conversion.obj
 0002:0000f6c0       ?UM_RECT@@YAXV?$rect@H@core@irr@@PAH@Z 100756c0 f   conversion.obj
 0002:0000f720       ?MU_TRIANGLE3DF@@YA?AV?$triangle3d@M@core@irr@@PAM@Z 10075720 f   conversion.obj
 0002:0000f860       ??0?$triangle3d@M@core@irr@@QAE@ABV012@@Z 10075860 f i conversion.obj
 0002:0000f8f0       ?UM_TRIANGLE3DF@@YAXV?$triangle3d@M@core@irr@@PAM@Z 100758f0 f   conversion.obj
 0002:0000f990       ?UM_LINE3D@@YAXV?$line3d@M@core@irr@@PAM@Z 10075990 f   conversion.obj
 0002:0000fa00       ??1?$string@_WV?$irrAllocator@_W@core@irr@@@core@irr@@QAE@XZ 10075a00 f i conversion.obj
 0002:0000fab0       ?c_str@?$string@_WV?$irrAllocator@_W@core@irr@@@core@irr@@QBEPB_WXZ 10075ab0 f i conversion.obj
 0002:0000faf0       ??1?$irrAllocator@_W@core@irr@@UAE@XZ 10075af0 f i conversion.obj
 0002:0000fb30       ?internal_new@?$irrAllocator@_W@core@irr@@MAEPAXI@Z 10075b30 f i conversion.obj
 0002:0000fb90       ?internal_delete@?$irrAllocator@_W@core@irr@@MAEXPAX@Z 10075b90 f i conversion.obj
 0002:0000fbf0       ??0?$triangle3d@M@core@irr@@QAE@XZ 10075bf0 f i conversion.obj
 0002:0000fc60       ?set@?$triangle3d@M@core@irr@@QAEXABV?$vector3d@M@23@00@Z 10075c60 f i conversion.obj
 0002:0000fce0       ??_E?$irrAllocator@_W@core@irr@@UAEPAXI@Z 10075ce0 f i conversion.obj
 0002:0000fce0       ??_G?$irrAllocator@_W@core@irr@@UAEPAXI@Z 10075ce0 f i conversion.obj
 0002:0000fd50       ?deallocate@?$irrAllocator@_W@core@irr@@QAEXPA_W@Z 10075d50 f i conversion.obj
 0002:0000fdc0       ?getFace@@YAPAVCGUITTFace@gui@irr@@PAX@Z 10075dc0 f   customfont.obj
 0002:0000fe00       ?getFont@@YAPAVCGUITTFont@gui@irr@@PAX@Z 10075e00 f   customfont.obj
 0002:0000fe40       _TTFont_Create             10075e40 f   customfont.obj
 0002:0000fee0       _TTFont_Attach             10075ee0 f   customfont.obj
 0002:0000ff50       _TTFont_SetTransparency    10075f50 f   customfont.obj
 0002:0000ffb0       _TTFont_SetAntialias       10075fb0 f   customfont.obj
 0002:00010010       _TTFace_Create             10076010 f   customfont.obj
 0002:000100b0       _TTFace_Load               100760b0 f   customfont.obj
 0002:00010120       _CGE_PVOID_METHODS         10076120 f   customgui.obj
 0002:00010190       ?CGE_PVOID_METHODS@CustomGuiElement@@QAEXW4_CGE_VOID_METHOD@@PAXHIPAH@Z 10076190 f i customgui.obj
 0002:000103c0       ?setNotClipped@IGUIElement@gui@irr@@QAEX_N@Z 100763c0 f i customgui.obj
 0002:00010410       ?setMaxSize@IGUIElement@gui@irr@@QAEXV?$dimension2d@H@core@3@@Z 10076410 f i customgui.obj
 0002:00010490       ?setMinSize@IGUIElement@gui@irr@@QAEXV?$dimension2d@H@core@3@@Z 10076490 f i customgui.obj
 0002:00010550       ?updateAbsolutePosition@IGUIElement@gui@irr@@UAEXXZ 10076550 f i customgui.obj
 0002:00010bf0       ?addChild@IGUIElement@gui@irr@@UAEXPAV123@@Z 10076bf0 f i customgui.obj
 0002:00010cc0       ?getAbsolutePosition@IGUIElement@gui@irr@@QBE?AV?$rect@H@core@3@XZ 10076cc0 f i customgui.obj
 0002:00010d20       ?removeChild@IGUIElement@gui@irr@@UAEXPAV123@@Z 10076d20 f i customgui.obj
 0002:00010e70       ?remove@IGUIElement@gui@irr@@UAEXXZ 10076e70 f i customgui.obj
 0002:00010ef0       ?draw@IGUIElement@gui@irr@@UAEXXZ 10076ef0 f i customgui.obj
 0002:00011010       ?OnPostRender@IGUIElement@gui@irr@@UAEXI@Z 10077010 f i customgui.obj
 0002:00011130       ?move@IGUIElement@gui@irr@@UAEXV?$position2d@H@core@3@@Z 10077130 f i customgui.obj
 0002:000111a0       ?setRelativePosition@IGUIElement@gui@irr@@QAEXABV?$rect@H@core@3@@Z 100771a0 f i customgui.obj
 0002:00011370       ?setVisible@IGUIElement@gui@irr@@UAEX_N@Z 10077370 f i customgui.obj
 0002:000113c0       ?setEnabled@IGUIElement@gui@irr@@UAEX_N@Z 100773c0 f i customgui.obj
 0002:00011410       ?setID@IGUIElement@gui@irr@@UAEXH@Z 10077410 f i customgui.obj
 0002:00011460       ??0?$rect@H@core@irr@@QAE@ABV012@@Z 10077460 f i customgui.obj
 0002:000114d0       ??4?$rect@H@core@irr@@QAEAAV012@ABV012@@Z 100774d0 f i customgui.obj
 0002:00011540       _CGE_PINT_METHODS          10077540 f   customgui.obj
 0002:000115b0       ?CGE_PINT_METHODS@CustomGuiElement@@QAEHW4_CGE_INT_METHOD@@PAXHIPAH@Z 100775b0 f i customgui.obj
 0002:000116a0       ?isNotClipped@IGUIElement@gui@irr@@QBE_NXZ 100776a0 f i customgui.obj
 0002:000116e0       ?isVisible@IGUIElement@gui@irr@@UBE_NXZ 100776e0 f i customgui.obj
 0002:00011720       ?isEnabled@IGUIElement@gui@irr@@UBE_NXZ 10077720 f i customgui.obj
 0002:00011760       ?getID@IGUIElement@gui@irr@@UBEHXZ 10077760 f i customgui.obj
 0002:000117a0       ?OnEvent@IGUIElement@gui@irr@@UAE_NABUSEvent@3@@Z 100777a0 f i customgui.obj
 0002:00011840       ?getType@IGUIElement@gui@irr@@QBE?AW4EGUI_ELEMENT_TYPE@23@XZ 10077840 f i customgui.obj
 0002:00011880       _CGE_PINTPTR_METHODS       10077880 f   customgui.obj
 0002:000118e0       ?CGE_PINTPTR_METHODS@CustomGuiElement@@QAEPAXW4_CGE_INTPTR_METHOD@@PAXH@Z 100778e0 f i customgui.obj
 0002:00011980       ?getParent@IGUIElement@gui@irr@@QBEPAV123@XZ 10077980 f i customgui.obj
 0002:000119c0       ?getText@IGUIElement@gui@irr@@UBEPB_WXZ 100779c0 f i customgui.obj
 0002:00011a20       _CGE_CREATE                10077a20 f   customgui.obj
 0002:00011af0       ??0CustomGuiElement@@QAE@PAVIGUIEnvironment@gui@irr@@PAVIGUIElement@23@HPAHP6GXW4_CGE_VOID_METHOD@@PAXHI2@ZP6GHW4_CGE_INT_METHOD@@4HI2@ZP6GPAXW4_CGE_INTPTR_METHOD@@4H@Z@Z 10077af0 f i customgui.obj
 0002:00011cf0       ??1IAttributeExchangingObject@io@irr@@UAE@XZ 10077cf0 f i customgui.obj
 0002:00011d30       ??0IAttributeExchangingObject@io@irr@@QAE@XZ 10077d30 f i customgui.obj
 0002:00011de0       ?serializeAttributes@IAttributeExchangingObject@io@irr@@UBEXPAVIAttributes@23@PAUSAttributeReadWriteOptions@23@@Z 10077de0 f i customgui.obj
 0002:00011e20       ?deserializeAttributes@IAttributeExchangingObject@io@irr@@UAEXPAVIAttributes@23@PAUSAttributeReadWriteOptions@23@@Z 10077e20 f i customgui.obj
 0002:00011e60       ??_EIAttributeExchangingObject@io@irr@@UAEPAXI@Z 10077e60 f i customgui.obj
 0002:00011e60       ??_GIAttributeExchangingObject@io@irr@@UAEPAXI@Z 10077e60 f i customgui.obj
 0002:00011ee0       ??_DIAttributeExchangingObject@io@irr@@QAEXXZ 10077ee0 f i customgui.obj
 0002:00011f40       ??0IGUIElement@gui@irr@@QAE@W4EGUI_ELEMENT_TYPE@12@PAVIGUIEnvironment@12@PAV012@HV?$rect@H@core@2@@Z 10077f40 f i customgui.obj
 0002:00012380       ??1IEventReceiver@irr@@UAE@XZ 10078380 f i customgui.obj
 0002:000123c0       ??_EIEventReceiver@irr@@UAEPAXI@Z 100783c0 f i customgui.obj
 0002:000123c0       ??_GIEventReceiver@irr@@UAEPAXI@Z 100783c0 f i customgui.obj
 0002:00012430       ??0IEventReceiver@irr@@QAE@XZ 10078430 f i customgui.obj
 0002:00012480       ?isPointInside@IGUIElement@gui@irr@@UBE_NABV?$position2d@H@core@3@@Z 10078480 f i customgui.obj
 0002:000124e0       ?isSubElement@IGUIElement@gui@irr@@UBE_NXZ 100784e0 f i customgui.obj
 0002:00012520       ?setSubElement@IGUIElement@gui@irr@@UAEX_N@Z 10078520 f i customgui.obj
 0002:00012570       ?setText@IGUIElement@gui@irr@@UAEXPB_W@Z 10078570 f i customgui.obj
 0002:000125d0       ?setToolTipText@IGUIElement@gui@irr@@UAEXPB_W@Z 100785d0 f i customgui.obj
 0002:00012630       ?getToolTipText@IGUIElement@gui@irr@@UBEABV?$string@_WV?$irrAllocator@_W@core@irr@@@core@3@XZ 10078630 f i customgui.obj
 0002:00012670       ?bringToFront@IGUIElement@gui@irr@@UAE_NPAV123@@Z 10078670 f i customgui.obj
 0002:00012790       ?getChildren@IGUIElement@gui@irr@@UBEABV?$list@PAVIGUIElement@gui@irr@@@core@3@XZ 10078790 f i customgui.obj
 0002:000127d0       ?getElementFromId@IGUIElement@gui@irr@@UBEPAV123@H_N@Z 100787d0 f i customgui.obj
 0002:00012960       ?getTypeName@IGUIElement@gui@irr@@UBEPBDXZ 10078960 f i customgui.obj
 0002:000129b0       ??_GIGUIElement@gui@irr@@UAEPAXI@Z 100789b0 f i customgui.obj
 0002:000129b0       ??_EIGUIElement@gui@irr@@UAEPAXI@Z 100789b0 f i customgui.obj
 0002:00012a20       ??_DIGUIElement@gui@irr@@QAEXXZ 10078a20 f i customgui.obj
 0002:00012aa0       ??1IGUIElement@gui@irr@@UAE@XZ 10078aa0 f i customgui.obj
 0002:00012cb0       ?draw@CustomGuiElement@@UAEXXZ 10078cb0 f i customgui.obj
 0002:00012d20       ?addChild@CustomGuiElement@@UAEXPAVIGUIElement@gui@irr@@@Z 10078d20 f i customgui.obj
 0002:00012d90       ?OnPostRender@CustomGuiElement@@UAEXI@Z 10078d90 f i customgui.obj
 0002:00012e00       ?move@CustomGuiElement@@UAEXV?$position2d@H@core@irr@@@Z 10078e00 f i customgui.obj
 0002:00012eb0       ?remove@CustomGuiElement@@UAEXXZ 10078eb0 f i customgui.obj
 0002:00012f20       ?removeChild@CustomGuiElement@@UAEXPAVIGUIElement@gui@irr@@@Z 10078f20 f i customgui.obj
 0002:00012f90       ?setAlignment@CustomGuiElement@@UAEXW4EGUI_ALIGNMENT@gui@irr@@000@Z 10078f90 f i customgui.obj
 0002:00013050       ?setEnabled@CustomGuiElement@@UAEX_N@Z 10079050 f i customgui.obj
 0002:000130c0       ?isEnabled@CustomGuiElement@@UBE_NXZ 100790c0 f i customgui.obj
 0002:00013130       ?setID@CustomGuiElement@@UAEXH@Z 10079130 f i customgui.obj
 0002:000131a0       ?getID@CustomGuiElement@@UBEHXZ 100791a0 f i customgui.obj
 0002:00013210       ?setMaxSize@CustomGuiElement@@UAEXV?$dimension2d@H@core@irr@@@Z 10079210 f i customgui.obj
 0002:000132c0       ?setMinSize@CustomGuiElement@@UAEXV?$dimension2d@H@core@irr@@@Z 100792c0 f i customgui.obj
 0002:00013370       ?setNotClipped@CustomGuiElement@@UAEX_N@Z 10079370 f i customgui.obj
 0002:000133e0       ?OnEvent@CustomGuiElement@@UAE_NABUSEvent@irr@@@Z 100793e0 f i customgui.obj
 0002:00013460       ?isNotClipped@CustomGuiElement@@UBE_NXZ 10079460 f i customgui.obj
 0002:000134d0       ?getType@CustomGuiElement@@UBE?AW4EGUI_ELEMENT_TYPE@gui@irr@@XZ 100794d0 f i customgui.obj
 0002:00013540       ?updateAbsoutePosition@CustomGuiElement@@UAEXXZ 10079540 f i customgui.obj
 0002:000135b0       ?setVisible@CustomGuiElement@@UAEX_N@Z 100795b0 f i customgui.obj
 0002:00013620       ?isVisible@CustomGuiElement@@UBE_NXZ 10079620 f i customgui.obj
 0002:00013690       ?getParent@CustomGuiElement@@UBEPAVIGUIElement@gui@irr@@XZ 10079690 f i customgui.obj
 0002:00013700       ?setText@CustomGuiElement@@UAEXPB_W@Z 10079700 f i customgui.obj
 0002:00013780       ?getText@CustomGuiElement@@UBEPB_WXZ 10079780 f i customgui.obj
 0002:000137f0       ??_ECustomGuiElement@@UAEPAXI@Z 100797f0 f i customgui.obj
 0002:000137f0       ??_GCustomGuiElement@@UAEPAXI@Z 100797f0 f i customgui.obj
 0002:00013860       ??_DCustomGuiElement@@QAEXXZ 10079860 f i customgui.obj
 0002:000138e0       ??1CustomGuiElement@@UAE@XZ 100798e0 f i customgui.obj
 0002:00013930       ??0?$list@PAVIGUIElement@gui@irr@@@core@irr@@QAE@XZ 10079930 f i customgui.obj
 0002:00013990       ??1?$list@PAVIGUIElement@gui@irr@@@core@irr@@QAE@XZ 10079990 f i customgui.obj
 0002:000139e0       ?push_back@?$list@PAVIGUIElement@gui@irr@@@core@irr@@QAEXABQAVIGUIElement@gui@3@@Z 100799e0 f i customgui.obj
 0002:00013b40       ?begin@?$list@PAVIGUIElement@gui@irr@@@core@irr@@QAE?AVIterator@123@XZ 10079b40 f i customgui.obj
 0002:00013ba0       ?begin@?$list@PAVIGUIElement@gui@irr@@@core@irr@@QBE?AVConstIterator@123@XZ 10079ba0 f i customgui.obj
 0002:00013c00       ?end@?$list@PAVIGUIElement@gui@irr@@@core@irr@@QAE?AVIterator@123@XZ 10079c00 f i customgui.obj
 0002:00013c60       ?end@?$list@PAVIGUIElement@gui@irr@@@core@irr@@QBE?AVConstIterator@123@XZ 10079c60 f i customgui.obj
 0002:00013cc0       ?erase@?$list@PAVIGUIElement@gui@irr@@@core@irr@@QAE?AVIterator@123@AAV4123@@Z 10079cc0 f i customgui.obj
 0002:00013e20       ??0?$rect@H@core@irr@@QAE@XZ 10079e20 f i customgui.obj
 0002:00013e90       ??H?$rect@H@core@irr@@QBE?AV012@ABV?$position2d@H@12@@Z 10079e90 f i customgui.obj
 0002:00013f40       ??Y?$rect@H@core@irr@@QAEAAV012@ABV?$position2d@H@12@@Z 10079f40 f i customgui.obj
 0002:00013fb0       ?clipAgainst@?$rect@H@core@irr@@QAEXABV123@@Z 10079fb0 f i customgui.obj
 0002:000140b0       ?repair@?$rect@H@core@irr@@QAEXXZ 1007a0b0 f i customgui.obj
 0002:00014150       ?getSize@?$rect@H@core@irr@@QBE?AV?$dimension2d@H@23@XZ 1007a150 f i customgui.obj
 0002:000141e0       ??4?$position2d@H@core@irr@@QAEABV012@ABV012@@Z 1007a1e0 f i customgui.obj
 0002:00014240       ??0?$rect@M@core@irr@@QAE@XZ 1007a240 f i customgui.obj
 0002:000142c0       ??0?$string@_WV?$irrAllocator@_W@core@irr@@@core@irr@@QAE@XZ 1007a2c0 f i customgui.obj
 0002:000143b0       ??EIterator@?$list@PAVIGUIElement@gui@irr@@@core@irr@@QAEAAV0123@XZ 1007a3b0 f i customgui.obj
 0002:00014400       ??9Iterator@?$list@PAVIGUIElement@gui@irr@@@core@irr@@QBE_NABV0123@@Z 1007a400 f i customgui.obj
 0002:00014450       ??DIterator@?$list@PAVIGUIElement@gui@irr@@@core@irr@@QAEAAPAVIGUIElement@gui@3@XZ 1007a450 f i customgui.obj
 0002:00014490       ??EConstIterator@?$list@PAVIGUIElement@gui@irr@@@core@irr@@QAEAAV0123@XZ 1007a490 f i customgui.obj
 0002:000144e0       ??9ConstIterator@?$list@PAVIGUIElement@gui@irr@@@core@irr@@QBE_NABV0123@@Z 1007a4e0 f i customgui.obj
 0002:00014530       ??DConstIterator@?$list@PAVIGUIElement@gui@irr@@@core@irr@@QAEABQAVIGUIElement@gui@3@XZ 1007a530 f i customgui.obj
 0002:00014570       ??0?$irrAllocator@_W@core@irr@@QAE@XZ 1007a570 f i customgui.obj
 0002:000145c0       ?clear@?$list@PAVIGUIElement@gui@irr@@@core@irr@@QAEXXZ 1007a5c0 f i customgui.obj
 0002:00014670       ??Y?$position2d@H@core@irr@@QAEABV012@ABV012@@Z 1007a670 f i customgui.obj
 0002:000146e0       ??0?$position2d@M@core@irr@@QAE@MM@Z 1007a6e0 f i customgui.obj
 0002:00014730       ?allocate@?$irrAllocator@_W@core@irr@@QAEPA_WI@Z 1007a730 f i customgui.obj
 0002:000147a0       ??0Iterator@?$list@PAVIGUIElement@gui@irr@@@core@irr@@AAE@PAUSKListNode@123@@Z 1007a7a0 f i customgui.obj
 0002:000147f0       ??0ConstIterator@?$list@PAVIGUIElement@gui@irr@@@core@irr@@AAE@PAUSKListNode@123@@Z 1007a7f0 f i customgui.obj
 0002:00014840       ??0SKListNode@?$list@PAVIGUIElement@gui@irr@@@core@irr@@QAE@XZ 1007a840 f i customgui.obj
 0002:00014890       ??$?4_W@?$string@_WV?$irrAllocator@_W@core@irr@@@core@irr@@QAEAAV012@QB_W@Z 1007a890 f i customgui.obj
 0002:00014a20       ??_EIGUIElement@gui@irr@@WNE@AEPAXI@Z 1007aa20 f i customgui.obj
 0002:00014a30       ??_ECustomGuiElement@@WOA@AEPAXI@Z 1007aa30 f i customgui.obj
 0002:00014a40       ?deserializeAttributes@IGUIElement@gui@irr@@$4PPPPPPPM@A@AEXPAVIAttributes@io@3@PAUSAttributeReadWriteOptions@53@@Z 1007aa40 f i customgui.obj
 0002:00014a50       ?deserializeAttributes@IGUIElement@gui@irr@@UAEXPAVIAttributes@io@3@PAUSAttributeReadWriteOptions@53@@Z 1007aa50 f i customgui.obj
 0002:00014f20       ?setAlignment@IGUIElement@gui@irr@@QAEXW4EGUI_ALIGNMENT@23@000@Z 1007af20 f i customgui.obj
 0002:000150f0       ?serializeAttributes@IGUIElement@gui@irr@@$4PPPPPPPM@M@BEXPAVIAttributes@io@3@PAUSAttributeReadWriteOptions@53@@Z 1007b0f0 f i customgui.obj
 0002:00015100       ?serializeAttributes@IGUIElement@gui@irr@@UBEXPAVIAttributes@io@3@PAUSAttributeReadWriteOptions@53@@Z 1007b100 f i customgui.obj
 0002:00015450       ?deserializeAttributes@IGUIElement@gui@irr@@$4PPPPPPPM@M@AEXPAVIAttributes@io@3@PAUSAttributeReadWriteOptions@53@@Z 1007b450 f i customgui.obj
 0002:00015460       ?serializeAttributes@IGUIElement@gui@irr@@$4PPPPPPPM@A@BEXPAVIAttributes@io@3@PAUSAttributeReadWriteOptions@53@@Z 1007b460 f i customgui.obj
 0002:00015470       _CSN_PVOID_METHODS         1007b470 f   customscenenodes.obj
 0002:000154e0       ?CSN_PVOID_METHODS@CustomSceneNode@@QAEXW4CSN_VOID_METHOD@@PAXHIPAM@Z 1007b4e0 f i customscenenodes.obj
 0002:00015790       ?OnRegisterSceneNode@ISceneNode@scene@irr@@UAEXXZ 1007b790 f i customscenenodes.obj
 0002:000158b0       ?OnAnimate@ISceneNode@scene@irr@@UAEXI@Z 1007b8b0 f i customscenenodes.obj
 0002:00015aa0       ?setVisible@ISceneNode@scene@irr@@UAEX_N@Z 1007baa0 f i customscenenodes.obj
 0002:00015af0       ?setID@ISceneNode@scene@irr@@UAEXH@Z 1007baf0 f i customscenenodes.obj
 0002:00015b40       ?addChild@ISceneNode@scene@irr@@UAEXPAV123@@Z 1007bb40 f i customscenenodes.obj
 0002:00015bf0       ?removeAll@ISceneNode@scene@irr@@UAEXXZ 1007bbf0 f i customscenenodes.obj
 0002:00015d20       ?remove@ISceneNode@scene@irr@@UAEXXZ 1007bd20 f i customscenenodes.obj
 0002:00015db0       ?addAnimator@ISceneNode@scene@irr@@UAEXPAVISceneNodeAnimator@23@@Z 1007bdb0 f i customscenenodes.obj
 0002:00015e30       ?removeAnimator@ISceneNode@scene@irr@@UAEXPAVISceneNodeAnimator@23@@Z 1007be30 f i customscenenodes.obj
 0002:00015f70       ?removeAnimators@ISceneNode@scene@irr@@UAEXXZ 1007bf70 f i customscenenodes.obj
 0002:00016090       ?setScale@ISceneNode@scene@irr@@UAEXABV?$vector3d@M@core@3@@Z 1007c090 f i customscenenodes.obj
 0002:000160f0       ?setRotation@ISceneNode@scene@irr@@UAEXABV?$vector3d@M@core@3@@Z 1007c0f0 f i customscenenodes.obj
 0002:00016150       ?setPosition@ISceneNode@scene@irr@@UAEXABV?$vector3d@M@core@3@@Z 1007c150 f i customscenenodes.obj
 0002:000161b0       ?setParent@ISceneNode@scene@irr@@UAEXPAV123@@Z 1007c1b0 f i customscenenodes.obj
 0002:000162a0       ?setTriangleSelector@ISceneNode@scene@irr@@UAEXPAVITriangleSelector@23@@Z 1007c2a0 f i customscenenodes.obj
 0002:00016370       ?updateAbsolutePosition@ISceneNode@scene@irr@@UAEXXZ 1007c370 f i customscenenodes.obj
 0002:00016460       ?getAbsoluteTransformation@ISceneNode@scene@irr@@QBEABV?$CMatrix4@M@core@3@XZ 1007c460 f i customscenenodes.obj
 0002:000164a0       _CSN_PINT_METHODS          1007c4a0 f   customscenenodes.obj
 0002:00016500       ?CSN_PINT_METHODS@CustomSceneNode@@QAEHW4CSN_INT_METHOD@@PAXH@Z 1007c500 f i customscenenodes.obj
 0002:000165e0       ?isVisible@ISceneNode@scene@irr@@UBE_NXZ 1007c5e0 f i customscenenodes.obj
 0002:00016620       ?getID@ISceneNode@scene@irr@@UBEHXZ 1007c620 f i customscenenodes.obj
 0002:00016660       ?removeChild@ISceneNode@scene@irr@@UAE_NPAV123@@Z 1007c660 f i customscenenodes.obj
 0002:000167c0       ?getMaterialCount@ISceneNode@scene@irr@@UBEIXZ 1007c7c0 f i customscenenodes.obj
 0002:00016800       _CSN_PINTPTR_METHODS       1007c800 f   customscenenodes.obj
 0002:00016860       ?CSN_PINTPTR_METHODS@CustomSceneNode@@QAEPAXW4CSN_INTPTR_METHOD@@PAXH@Z 1007c860 f i customscenenodes.obj
 0002:00016910       ?getMaterial@ISceneNode@scene@irr@@UAEAAVSMaterial@video@3@I@Z 1007c910 f i customscenenodes.obj
 0002:00016950       ?getTriangleSelector@ISceneNode@scene@irr@@UBEPAVITriangleSelector@23@XZ 1007c950 f i customscenenodes.obj
 0002:00016990       ?getParent@ISceneNode@scene@irr@@QBEPAV123@XZ 1007c990 f i customscenenodes.obj
 0002:000169d0       _CSN_PFLOAT_METHODS        1007c9d0 f   customscenenodes.obj
 0002:00016a30       ?CSN_PFLOAT_METHODS@CustomSceneNode@@QAEXW4CSN_FLOAT_METHOD@@PAM@Z 1007ca30 f i customscenenodes.obj
 0002:00016bf0       ?getTransformedBoundingBox@ISceneNode@scene@irr@@UBE?BV?$aabbox3d@M@core@3@XZ 1007cbf0 f i customscenenodes.obj
 0002:00016cc0       ?getRelativeTransformation@ISceneNode@scene@irr@@UBE?AV?$CMatrix4@M@core@3@XZ 1007ccc0 f i customscenenodes.obj
 0002:00016e10       ?getScale@ISceneNode@scene@irr@@UBE?AV?$vector3d@M@core@3@XZ 1007ce10 f i customscenenodes.obj
 0002:00016e70       ?getRotation@ISceneNode@scene@irr@@UBEABV?$vector3d@M@core@3@XZ 1007ce70 f i customscenenodes.obj
 0002:00016eb0       ?getPosition@ISceneNode@scene@irr@@UBE?BV?$vector3d@M@core@3@XZ 1007ceb0 f i customscenenodes.obj
 0002:00016f10       ?getAbsolutePosition@ISceneNode@scene@irr@@UBE?AV?$vector3d@M@core@3@XZ 1007cf10 f i customscenenodes.obj
 0002:00016f70       _CSN_CREATE                1007cf70 f   customscenenodes.obj
 0002:00017040       ??0CustomSceneNode@@QAE@PAVISceneNode@scene@irr@@PAVISceneManager@23@HP6GXW4CSN_VOID_METHOD@@PAXHIPAM@ZP6GHW4CSN_INT_METHOD@@3H@ZP6GPAXW4CSN_INTPTR_METHOD@@3H@ZP6GXW4CSN_FLOAT_METHOD@@@Z@Z 1007d040 f i customscenenodes.obj
 0002:00017220       ??0ISceneNode@scene@irr@@QAE@PAV012@PAVISceneManager@12@HABV?$vector3d@M@core@2@22@Z 1007d220 f i customscenenodes.obj
 0002:00017480       ??1ISceneNode@scene@irr@@UAE@XZ 1007d480 f i customscenenodes.obj
 0002:000176a0       ?getName@ISceneNode@scene@irr@@UBEPBDXZ 1007d6a0 f i customscenenodes.obj
 0002:00017700       ?setName@ISceneNode@scene@irr@@UAEXPBD@Z 1007d700 f i customscenenodes.obj
 0002:00017760       ?setDebugDataVisible@ISceneNode@scene@irr@@UAEXW4E_DEBUG_SCENE_TYPE@23@@Z 1007d760 f i customscenenodes.obj
 0002:000177b0       ?getType@ISceneNode@scene@irr@@UBE?AW4ESCENE_NODE_TYPE@23@XZ 1007d7b0 f i customscenenodes.obj
 0002:000177f0       ?serializeAttributes@ISceneNode@scene@irr@@UBEXPAVIAttributes@io@3@PAUSAttributeReadWriteOptions@53@@Z 1007d7f0 f i customscenenodes.obj
 0002:00017a30       ?deserializeAttributes@ISceneNode@scene@irr@@UAEXPAVIAttributes@io@3@PAUSAttributeReadWriteOptions@53@@Z 1007da30 f i customscenenodes.obj
 0002:00017d20       ?clone@ISceneNode@scene@irr@@UAEPAV123@PAV123@PAVISceneManager@23@@Z 1007dd20 f i customscenenodes.obj
 0002:00017d60       ??_EISceneNode@scene@irr@@UAEPAXI@Z 1007dd60 f i customscenenodes.obj
 0002:00017d60       ??_GISceneNode@scene@irr@@UAEPAXI@Z 1007dd60 f i customscenenodes.obj
 0002:00017df0       ??_DISceneNode@scene@irr@@QAEXXZ 1007ddf0 f i customscenenodes.obj
 0002:00017e60       ?getAbsolutePosition@CustomSceneNode@@UAE?AV?$vector3d@M@core@irr@@XZ 1007de60 f i customscenenodes.obj
 0002:00017f10       ?getPosition@CustomSceneNode@@UAE?AV?$vector3d@M@core@irr@@XZ 1007df10 f i customscenenodes.obj
 0002:00017fc0       ?getScale@CustomSceneNode@@UAE?AV?$vector3d@M@core@irr@@XZ 1007dfc0 f i customscenenodes.obj
 0002:00018070       ?getRotation@CustomSceneNode@@UAE?AV?$vector3d@M@core@irr@@XZ 1007e070 f i customscenenodes.obj
 0002:00018120       ?getAbsoluteTransformation@CustomSceneNode@@UAE?AV?$CMatrix4@M@core@irr@@XZ 1007e120 f i customscenenodes.obj
 0002:000181c0       ?getRelativeTransformation@CustomSceneNode@@UAE?AV?$CMatrix4@M@core@irr@@XZ 1007e1c0 f i customscenenodes.obj
 0002:00018260       ?getBoundingBox@CustomSceneNode@@UBEABV?$aabbox3d@M@core@irr@@XZ 1007e260 f i customscenenodes.obj
 0002:000182d0       ?updBB@CustomSceneNode@@UAEXXZ 1007e2d0 f i customscenenodes.obj
 0002:000183e0       ?getTransformedBoundingBox@CustomSceneNode@@UAE?AV?$aabbox3d@M@core@irr@@XZ 1007e3e0 f i customscenenodes.obj
 0002:000184d0       ?getID@CustomSceneNode@@UAEHXZ 1007e4d0 f i customscenenodes.obj
 0002:00018540       ?getMaterialCount@CustomSceneNode@@UAEIXZ 1007e540 f i customscenenodes.obj
 0002:000185b0       ?isVisible@CustomSceneNode@@UAE_NXZ 1007e5b0 f i customscenenodes.obj
 0002:00018620       ?removeChild@CustomSceneNode@@UAE_NPAVISceneNode@scene@irr@@@Z 1007e620 f i customscenenodes.obj
 0002:00018690       ?getParent@CustomSceneNode@@UAEPAVISceneNode@scene@irr@@XZ 1007e690 f i customscenenodes.obj
 0002:00018700       ?getMaterial@CustomSceneNode@@UAEAAVSMaterial@video@irr@@I@Z 1007e700 f i customscenenodes.obj
 0002:00018770       ?getTriangleSelector@CustomSceneNode@@UAEPAVITriangleSelector@scene@irr@@XZ 1007e770 f i customscenenodes.obj
 0002:000187e0       ?addAnimator@CustomSceneNode@@UAEXPAVISceneNodeAnimator@scene@irr@@@Z 1007e7e0 f i customscenenodes.obj
 0002:00018850       ?addChild@CustomSceneNode@@UAEXPAVISceneNode@scene@irr@@@Z 1007e850 f i customscenenodes.obj
 0002:000188c0       ?OnAnimate@CustomSceneNode@@UAEXI@Z 1007e8c0 f i customscenenodes.obj
 0002:00018930       ?OnRegisterSceneNode@CustomSceneNode@@UAEXXZ 1007e930 f i customscenenodes.obj
 0002:000189a0       ?remove@CustomSceneNode@@UAEXXZ 1007e9a0 f i customscenenodes.obj
 0002:00018a10       ?removeAll@CustomSceneNode@@UAEXXZ 1007ea10 f i customscenenodes.obj
 0002:00018a80       ?removeAnimator@CustomSceneNode@@UAEXPAVISceneNodeAnimator@scene@irr@@@Z 1007ea80 f i customscenenodes.obj
 0002:00018af0       ?removeAnimators@CustomSceneNode@@UAEXXZ 1007eaf0 f i customscenenodes.obj
 0002:00018b60       ?render@CustomSceneNode@@UAEXXZ 1007eb60 f i customscenenodes.obj
 0002:00018bd0       ?setID@CustomSceneNode@@UAEXH@Z 1007ebd0 f i customscenenodes.obj
 0002:00018c40       ?setParent@CustomSceneNode@@UAEXPAVISceneNode@scene@irr@@@Z 1007ec40 f i customscenenodes.obj
 0002:00018cb0       ?setPosition@CustomSceneNode@@UAEXV?$vector3d@M@core@irr@@@Z 1007ecb0 f i customscenenodes.obj
 0002:00018d60       ?setRotation@CustomSceneNode@@UAEXV?$vector3d@M@core@irr@@@Z 1007ed60 f i customscenenodes.obj
 0002:00018e10       ?setScale@CustomSceneNode@@UAEXV?$vector3d@M@core@irr@@@Z 1007ee10 f i customscenenodes.obj
 0002:00018ec0       ?setTriangleSelector@CustomSceneNode@@UAEXPAVITriangleSelector@scene@irr@@@Z 1007eec0 f i customscenenodes.obj
 0002:00018f30       ?setVisible@CustomSceneNode@@UAEX_N@Z 1007ef30 f i customscenenodes.obj
 0002:00018fb0       ?updateAbsolutePosition@CustomSceneNode@@UAEXXZ 1007efb0 f i customscenenodes.obj
 0002:00019020       ??_GCustomSceneNode@@UAEPAXI@Z 1007f020 f i customscenenodes.obj
 0002:00019020       ??_ECustomSceneNode@@UAEPAXI@Z 1007f020 f i customscenenodes.obj
 0002:000190b0       ??_DCustomSceneNode@@QAEXXZ 1007f0b0 f i customscenenodes.obj
 0002:00019120       ??1CustomSceneNode@@UAE@XZ 1007f120 f i customscenenodes.obj
 0002:00019180       _CSN_SET_TEMP_FLOATS       1007f180 f   customscenenodes.obj
 0002:000191c0       ??0?$string@DV?$irrAllocator@D@core@irr@@@core@irr@@QAE@XZ 1007f1c0 f i customscenenodes.obj
 0002:000192b0       ??4?$string@DV?$irrAllocator@D@core@irr@@@core@irr@@QAEAAV012@ABV012@@Z 1007f2b0 f i customscenenodes.obj
 0002:000193c0       ?size@?$string@DV?$irrAllocator@D@core@irr@@@core@irr@@QBEIXZ 1007f3c0 f i customscenenodes.obj
 0002:00019400       ?c_str@?$string@DV?$irrAllocator@D@core@irr@@@core@irr@@QBEPBDXZ 1007f400 f i customscenenodes.obj
 0002:00019440       ??9?$vector3d@M@core@irr@@QBE_NABV012@@Z 1007f440 f i customscenenodes.obj
 0002:000194b0       ??0?$list@PAVISceneNode@scene@irr@@@core@irr@@QAE@XZ 1007f4b0 f i customscenenodes.obj
 0002:00019510       ??1?$list@PAVISceneNode@scene@irr@@@core@irr@@QAE@XZ 1007f510 f i customscenenodes.obj
 0002:00019560       ?clear@?$list@PAVISceneNode@scene@irr@@@core@irr@@QAEXXZ 1007f560 f i customscenenodes.obj
 0002:00019610       ?push_back@?$list@PAVISceneNode@scene@irr@@@core@irr@@QAEXABQAVISceneNode@scene@3@@Z 1007f610 f i customscenenodes.obj
 0002:00019770       ?begin@?$list@PAVISceneNode@scene@irr@@@core@irr@@QAE?AVIterator@123@XZ 1007f770 f i customscenenodes.obj
 0002:000197d0       ?end@?$list@PAVISceneNode@scene@irr@@@core@irr@@QAE?AVIterator@123@XZ 1007f7d0 f i customscenenodes.obj
 0002:00019830       ?erase@?$list@PAVISceneNode@scene@irr@@@core@irr@@QAE?AVIterator@123@AAV4123@@Z 1007f830 f i customscenenodes.obj
 0002:00019990       ??0?$list@PAVISceneNodeAnimator@scene@irr@@@core@irr@@QAE@XZ 1007f990 f i customscenenodes.obj
 0002:000199f0       ??1?$list@PAVISceneNodeAnimator@scene@irr@@@core@irr@@QAE@XZ 1007f9f0 f i customscenenodes.obj
 0002:00019a40       ?clear@?$list@PAVISceneNodeAnimator@scene@irr@@@core@irr@@QAEXXZ 1007fa40 f i customscenenodes.obj
 0002:00019af0       ?push_back@?$list@PAVISceneNodeAnimator@scene@irr@@@core@irr@@QAEXABQAVISceneNodeAnimator@scene@3@@Z 1007faf0 f i customscenenodes.obj
 0002:00019c50       ?begin@?$list@PAVISceneNodeAnimator@scene@irr@@@core@irr@@QAE?AVIterator@123@XZ 1007fc50 f i customscenenodes.obj
 0002:00019cb0       ?end@?$list@PAVISceneNodeAnimator@scene@irr@@@core@irr@@QAE?AVIterator@123@XZ 1007fcb0 f i customscenenodes.obj
 0002:00019d10       ?erase@?$list@PAVISceneNodeAnimator@scene@irr@@@core@irr@@QAE?AVIterator@123@AAV4123@@Z 1007fd10 f i customscenenodes.obj
 0002:00019e70       ??EIterator@?$list@PAVISceneNodeAnimator@scene@irr@@@core@irr@@QAEAAV0123@XZ 1007fe70 f i customscenenodes.obj
 0002:00019ec0       ??9Iterator@?$list@PAVISceneNodeAnimator@scene@irr@@@core@irr@@QBE_NABV0123@@Z 1007fec0 f i customscenenodes.obj
 0002:00019f10       ??DIterator@?$list@PAVISceneNodeAnimator@scene@irr@@@core@irr@@QAEAAPAVISceneNodeAnimator@scene@3@XZ 1007ff10 f i customscenenodes.obj
 0002:00019f50       ??EIterator@?$list@PAVISceneNode@scene@irr@@@core@irr@@QAEAAV0123@XZ 1007ff50 f i customscenenodes.obj
 0002:00019fa0       ??9Iterator@?$list@PAVISceneNode@scene@irr@@@core@irr@@QBE_NABV0123@@Z 1007ffa0 f i customscenenodes.obj
 0002:00019ff0       ??DIterator@?$list@PAVISceneNode@scene@irr@@@core@irr@@QAEAAPAVISceneNode@scene@3@XZ 1007fff0 f i customscenenodes.obj
 0002:0001a030       ??0?$aabbox3d@M@core@irr@@QAE@XZ 10080030 f i customscenenodes.obj
 0002:0001a0d0       ??0?$aabbox3d@M@core@irr@@QAE@MMMMMM@Z 100800d0 f i customscenenodes.obj
 0002:0001a170       ?addInternalBox@?$aabbox3d@M@core@irr@@QAEXABV123@@Z 10080170 f i customscenenodes.obj
 0002:0001a1e0       ?reset@?$aabbox3d@M@core@irr@@QAEXMMM@Z 100801e0 f i customscenenodes.obj
 0002:0001a270       ?equals@?$vector3d@M@core@irr@@QBE_NABV123@M@Z 10080270 f i customscenenodes.obj
 0002:0001a380       ?set@?$vector3d@M@core@irr@@QAEXMMM@Z 10080380 f i customscenenodes.obj
 0002:0001a3e0       ??0Iterator@?$list@PAVISceneNodeAnimator@scene@irr@@@core@irr@@AAE@PAUSKListNode@123@@Z 100803e0 f i customscenenodes.obj
 0002:0001a430       ??0Iterator@?$list@PAVISceneNode@scene@irr@@@core@irr@@AAE@PAUSKListNode@123@@Z 10080430 f i customscenenodes.obj
 0002:0001a480       ??0SKListNode@?$list@PAVISceneNode@scene@irr@@@core@irr@@QAE@XZ 10080480 f i customscenenodes.obj
 0002:0001a4d0       ??0SKListNode@?$list@PAVISceneNodeAnimator@scene@irr@@@core@irr@@QAE@XZ 100804d0 f i customscenenodes.obj
 0002:0001a520       ??D?$CMatrix4@M@core@irr@@QBE?AV012@ABV012@@Z 10080520 f i customscenenodes.obj
 0002:0001b160       ??A?$CMatrix4@M@core@irr@@QBEABMI@Z 10081160 f i customscenenodes.obj
 0002:0001b1b0       ??X?$CMatrix4@M@core@irr@@QAEAAV012@ABV012@@Z 100811b0 f i customscenenodes.obj
 0002:0001b290       ?setbyproduct_nocheck@?$CMatrix4@M@core@irr@@QAEXABV123@0@Z 10081290 f i customscenenodes.obj
 0002:0001b790       ?setTranslation@?$CMatrix4@M@core@irr@@QAEXABV?$vector3d@M@23@@Z 10081790 f i customscenenodes.obj
 0002:0001b800       ?getTranslation@?$CMatrix4@M@core@irr@@QBE?AV?$vector3d@M@23@XZ 10081800 f i customscenenodes.obj
 0002:0001b880       ?setRotationDegrees@?$CMatrix4@M@core@irr@@QAEXABV?$vector3d@M@23@@Z 10081880 f i customscenenodes.obj
 0002:0001b900       ?setScale@?$CMatrix4@M@core@irr@@QAEXABV?$vector3d@M@23@@Z 10081900 f i customscenenodes.obj
 0002:0001b970       ?transformBox@?$CMatrix4@M@core@irr@@QBEXAAV?$aabbox3d@M@23@@Z 10081970 f i customscenenodes.obj
 0002:0001ba00       ?repair@?$aabbox3d@M@core@irr@@QAEXXZ 10081a00 f i customscenenodes.obj
 0002:0001baf0       ?setRotationRadians@?$CMatrix4@M@core@irr@@QAEXABV?$vector3d@M@23@@Z 10081af0 f i customscenenodes.obj
 0002:0001bcb0       ?cos@@YAMM@Z               10081cb0 f i customscenenodes.obj
 0002:0001bd10       _cosf                      10081d10 f i customscenenodes.obj
 0002:0001bd80       ?sin@@YAMM@Z               10081d80 f i customscenenodes.obj
 0002:0001bde0       _sinf                      10081de0 f i customscenenodes.obj
 0002:0001be50       ?GetDeviceFromIntPtr@@YAPAVIrrlichtDevice@irr@@PAX@Z 10081e50 f   device.obj
 0002:0001be90       _CreateDevice              10081e90 f   device.obj
 0002:0001bff0       ??0SIrrlichtCreationParameters@irr@@QAE@XZ 10081ff0 f i device.obj
 0002:0001c100       ??0EventReceiver@@QAE@XZ   10082100 f i device.obj
 0002:0001c170       ?OnEvent@EventReceiver@@UAE_NABUSEvent@irr@@@Z 10082170 f i device.obj
 0002:0001c250       ??_GEventReceiver@@UAEPAXI@Z 10082250 f i device.obj
 0002:0001c250       ??_EEventReceiver@@UAEPAXI@Z 10082250 f i device.obj
 0002:0001c2c0       ??1EventReceiver@@UAE@XZ   100822c0 f i device.obj
 0002:0001c310       _CreateDeviceA             10082310 f   device.obj
 0002:0001c470       _Device_SetWindowCaption   10082470 f   device.obj
 0002:0001c500       _Device_GetSceneManager    10082500 f   device.obj
 0002:0001c580       _Device_GetVideoDriver     10082580 f   device.obj
 0002:0001c600       _Device_Run                10082600 f   device.obj
 0002:0001c690       _Device_Drop               10082690 f   device.obj
 0002:0001c710       _Device_Close              10082710 f   device.obj
 0002:0001c790       _Device_GetCursorControl   10082790 f   device.obj
 0002:0001c810       _Device_GetFileSystem      10082810 f   device.obj
 0002:0001c890       _Device_GetGUIEnvironment  10082890 f   device.obj
 0002:0001c910       _Device_GetTimer           10082910 f   device.obj
 0002:0001c990       _Device_GetVideoModeList   10082990 f   device.obj
 0002:0001ca10       _Device_GetVersion         10082a10 f   device.obj
 0002:0001caa0       _Device_IsWindowActive     10082aa0 f   device.obj
 0002:0001cb30       _Device_SetResizeable      10082b30 f   device.obj
 0002:0001cbb0       _Device_SetCallback        10082bb0 f   device.obj
 0002:0001cc40       ?setCallback@EventReceiver@@QAEXP6G_NQAX@Z@Z 10082c40 f i device.obj
 0002:0001cc90       _VideoModeList_GetDesktopDepth 10082c90 f   device.obj
 0002:0001ccf0       _VideoModeList_GetDesktopResolution 10082cf0 f   device.obj
 0002:0001cd70       _VideoModeList_GetVideoModeCount 10082d70 f   device.obj
 0002:0001cdd0       _VideoModeList_GetVideoModeDepth 10082dd0 f   device.obj
 0002:0001ce30       _VideoModeList_GetVideoModeResolution 10082e30 f   device.obj
 0002:0001ceb0       _FileSystem_AddZipFileArchive 10082eb0 f   device.obj
 0002:0001cf20       _FileSystem_ChangeWorkingDirectory 10082f20 f   device.obj
 0002:0001cf90       _FileSystem_GetFileList    10082f90 f   device.obj
 0002:0001cff0       _FileSystem_ExistsFile     10082ff0 f   device.obj
 0002:0001d060       _FileSystem_GetWorkingDirectory 10083060 f   device.obj
 0002:0001d0d0       _CursorControl_GetPosition 100830d0 f   device.obj
 0002:0001d140       _CursorControl_GetRelativePosition 10083140 f   device.obj
 0002:0001d1b0       _CursorControl_IsVisible   100831b0 f   device.obj
 0002:0001d220       _CursorControl_SetPosition 10083220 f   device.obj
 0002:0001d290       _CursorControl_SetPositionA 10083290 f   device.obj
 0002:0001d300       _CursorControl_SetVisible  10083300 f   device.obj
 0002:0001d360       _Timer_GetRealTime         10083360 f   device.obj
 0002:0001d3c0       _Timer_GetSpeed            100833c0 f   device.obj
 0002:0001d420       _Timer_GetTime             10083420 f   device.obj
 0002:0001d480       _Timer_IsStopped           10083480 f   device.obj
 0002:0001d4f0       _Timer_SetSpeed            100834f0 f   device.obj
 0002:0001d560       _Timer_SetTime             10083560 f   device.obj
 0002:0001d5c0       _Timer_Start               100835c0 f   device.obj
 0002:0001d620       _Timer_Stop                10083620 f   device.obj
 0002:0001d680       _Timer_Tick                10083680 f   device.obj
 0002:0001d6e0       _FileList_GetFileCount     100836e0 f   device.obj
 0002:0001d740       _FileList_GetFileName      10083740 f   device.obj
 0002:0001d7b0       _FileList_GetFullFileName  100837b0 f   device.obj
 0002:0001d810       _FileList_IsDirectory      10083810 f   device.obj
 0002:0001d880       _Device_GetLogger          10083880 f   device.obj
 0002:0001d8e0       _Logger_GetLogLevel        100838e0 f   device.obj
 0002:0001d940       _Logger_Log                10083940 f   device.obj
 0002:0001d9b0       _Logger_LogA               100839b0 f   device.obj
 0002:0001da20       _Logger_SetLogLevel        10083a20 f   device.obj
 0002:0001da80       _Event_Create              10083a80 f   event.obj
 0002:0001db40       ?GetEventFromIntPtr@@YAPAUSEvent@irr@@PAX@Z 10083b40 f   event.obj
 0002:0001db80       _Event_GetType             10083b80 f   event.obj
 0002:0001dbd0       _Event_GetMouseInputEvent  10083bd0 f   event.obj
 0002:0001dc30       _Event_GetGUIEventType     10083c30 f   event.obj
 0002:0001dc90       _Event_GetMouseWheelDelta  10083c90 f   event.obj
 0002:0001dcf0       _Event_GetMousePosition    10083cf0 f   event.obj
 0002:0001dd70       _Event_GetKey              10083d70 f   event.obj
 0002:0001ddd0       _Event_GetKeyPressedDown   10083dd0 f   event.obj
 0002:0001de30       _Event_GetKeyShift         10083e30 f   event.obj
 0002:0001de90       _Event_GetKeyControl       10083e90 f   event.obj
 0002:0001def0       _Event_GetKeyChar          10083ef0 f   event.obj
 0002:0001df50       _Event_GetLogString        10083f50 f   event.obj
 0002:0001dfc0       _Event_GetCaller           10083fc0 f   event.obj
 0002:0001e020       _Event_SetType             10084020 f   event.obj
 0002:0001e080       ?Event_GetUserDataI@@YAHPAXD@Z 10084080 f   event.obj
 0002:0001e110       _Event_GetUserDataF        10084110 f   event.obj
 0002:0001e170       _Event_SetUserDataI        10084170 f   event.obj
 0002:0001e200       _Event_SetUserDataF        10084200 f   event.obj
 0002:0001e260       _MaterialRendererServices_GetVideoDriver 10084260 f   gpu.obj
 0002:0001e2c0       _MaterialRendererServices_SetBasicRenderStates 100842c0 f   gpu.obj
 0002:0001e330       _MaterialRendererServices_SetPixelShaderConstant 10084330 f   gpu.obj
 0002:0001e3a0       _MaterialRendererServices_SetPixelShaderConstantA 100843a0 f   gpu.obj
 0002:0001e410       _MaterialRendererServices_SetVertexShaderConstant 10084410 f   gpu.obj
 0002:0001e480       _MaterialRendererServices_SetVertexShaderConstantA 10084480 f   gpu.obj
 0002:0001e4f0       _GPU_AddHighLevelShaderMaterial 100844f0 f   gpu.obj
 0002:0001e5f0       ??0ShaderConstantSetCallBack@@QAE@P6G_NPAXH@Z@Z 100845f0 f i gpu.obj
 0002:0001e700       ?OnSetConstants@ShaderConstantSetCallBack@@UAEXPAVIMaterialRendererServices@video@irr@@H@Z 10084700 f i gpu.obj
 0002:0001e770       ??_GShaderConstantSetCallBack@@UAEPAXI@Z 10084770 f i gpu.obj
 0002:0001e770       ??_EShaderConstantSetCallBack@@UAEPAXI@Z 10084770 f i gpu.obj
 0002:0001e7f0       ??0IShaderConstantSetCallBack@video@irr@@QAE@XZ 100847f0 f i gpu.obj
 0002:0001e8a0       ??_EIShaderConstantSetCallBack@video@irr@@UAEPAXI@Z 100848a0 f i gpu.obj
 0002:0001e8a0       ??_GIShaderConstantSetCallBack@video@irr@@UAEPAXI@Z 100848a0 f i gpu.obj
 0002:0001e920       ??_DIShaderConstantSetCallBack@video@irr@@QAEXXZ 10084920 f i gpu.obj
 0002:0001e980       ??1IShaderConstantSetCallBack@video@irr@@UAE@XZ 10084980 f i gpu.obj
 0002:0001e9e0       ??_DShaderConstantSetCallBack@@QAEXXZ 100849e0 f i gpu.obj
 0002:0001ea40       ??1ShaderConstantSetCallBack@@UAE@XZ 10084a40 f i gpu.obj
 0002:0001eaa0       _GPU_AddHighLevelShaderMaterialFromFiles 10084aa0 f   gpu.obj
 0002:0001eba0       _GPU_AddShaderMaterial     10084ba0 f   gpu.obj
 0002:0001ec90       _GPU_AddShaderMaterialFromFiles 10084c90 f   gpu.obj
 0002:0001ed80       ?GetElem@@YAPAVIGUIElement@gui@irr@@PAX@Z 10084d80 f   guielem.obj
 0002:0001edc0       _GuiElem_AddChild          10084dc0 f   guielem.obj
 0002:0001ee50       _GuiElem_BringToFront      10084e50 f   guielem.obj
 0002:0001eef0       _GuiElem_Draw              10084ef0 f   guielem.obj
 0002:0001ef70       _GuiElem_GetToolTipText    10084f70 f   guielem.obj
 0002:0001f000       _GuiElem_SetToolTipText    10085000 f   guielem.obj
 0002:0001f090       _GuiElem_GetAbsolutePosition 10085090 f   guielem.obj
 0002:0001f100       _GuiElem_GetChildren       10085100 f   guielem.obj
 0002:0001f230       _GuiElem_GetChildrenCount  10085230 f   guielem.obj
 0002:0001f2b0       _GuiElem_GetElementFromID  100852b0 f   guielem.obj
 0002:0001f340       _GuiElem_GetElementFromPoint 10085340 f   guielem.obj
 0002:0001f3c0       ?getElementFromPoint@IGUIElement@gui@irr@@QAEPAV123@ABV?$position2d@H@core@3@@Z 100853c0 f i guielem.obj
 0002:0001f510       _GuiElem_GetID             10085510 f   guielem.obj
 0002:0001f590       _GuiElem_GetParent         10085590 f   guielem.obj
 0002:0001f5f0       _GuiElem_GetRelativePosition 100855f0 f   guielem.obj
 0002:0001f660       ?getRelativePosition@IGUIElement@gui@irr@@QBE?AV?$rect@H@core@3@XZ 10085660 f i guielem.obj
 0002:0001f6c0       _GuiElem_GetText           100856c0 f   guielem.obj
 0002:0001f750       _GuiElem_GetType           10085750 f   guielem.obj
 0002:0001f7b0       _GuiElem_IsEnabled         100857b0 f   guielem.obj
 0002:0001f840       _GuiElem_IsVisible         10085840 f   guielem.obj
 0002:0001f8d0       _GuiElem_Move              100858d0 f   guielem.obj
 0002:0001f960       _GuiElem_OnEvent           10085960 f   guielem.obj
 0002:0001f9f0       _GuiElem_Remove            100859f0 f   guielem.obj
 0002:0001fa70       _GuiElem_RemoveChild       10085a70 f   guielem.obj
 0002:0001fb00       _GuiElem_SetEnabled        10085b00 f   guielem.obj
 0002:0001fb80       _GuiElem_SetID             10085b80 f   guielem.obj
 0002:0001fc00       _GuiElem_SetRelativePosition 10085c00 f   guielem.obj
 0002:0001fc90       _GuiElem_SetText           10085c90 f   guielem.obj
 0002:0001fd20       _GuiElem_SetVisible        10085d20 f   guielem.obj
 0002:0001fda0       _GuiElem_UpdateAbsolutePosition 10085da0 f   guielem.obj
 0002:0001fe20       _GuiElem_OnPostRender      10085e20 f   guielem.obj
 0002:0001fea0       _GuiElem_SetAlignment      10085ea0 f   guielem.obj
 0002:0001ff20       _GuiElem_SetMaxSize        10085f20 f   guielem.obj
 0002:0001ffa0       _GuiElem_SetMinSize        10085fa0 f   guielem.obj
 0002:00020020       _GuiElem_SetNotClipped     10086020 f   guielem.obj
 0002:00020080       _GuiElem_GetNotClipped     10086080 f   guielem.obj
 0002:000200f0       ?getSize@?$list@PAVIGUIElement@gui@irr@@@core@irr@@QBEIXZ 100860f0 f i guielem.obj
 0002:00020130       ?getLast@?$list@PAVIGUIElement@gui@irr@@@core@irr@@QAE?AVIterator@123@XZ 10086130 f i guielem.obj
 0002:00020190       ??FIterator@?$list@PAVIGUIElement@gui@irr@@@core@irr@@QAEAAV0123@XZ 10086190 f i guielem.obj
 0002:000201e0       _GUIButton_GetUseAlphaChannel 100861e0 f   guielem2.obj
 0002:00020230       _GUIButton_IsPressed       10086230 f   guielem2.obj
 0002:000202a0       _GUIButton_SetImage        100862a0 f   guielem2.obj
 0002:00020330       _GUIButton_SetImageA       10086330 f   guielem2.obj
 0002:00020390       _GUIButton_SetIsPushButton 10086390 f   guielem2.obj
 0002:00020400       _GUIButton_SetOverrideFont 10086400 f   guielem2.obj
 0002:00020460       _GUIButton_SetPressed      10086460 f   guielem2.obj
 0002:000204d0       _GUIButton_SetPressedImage 100864d0 f   guielem2.obj
 0002:00020560       _GUIButton_SetPressedImageA 10086560 f   guielem2.obj
 0002:000205c0       _GUIButton_SetUseAlphaChannel 100865c0 f   guielem2.obj
 0002:00020630       _GUICheckBox_IsChecked     10086630 f   guielem2.obj
 0002:000206a0       _GUICheckBox_SetChecked    100866a0 f   guielem2.obj
 0002:00020700       _GUIComboBox_AddItem       10086700 f   guielem2.obj
 0002:00020770       _GUIComboBox_Clear         10086770 f   guielem2.obj
 0002:000207d0       _GUIComboBox_GetItem       100867d0 f   guielem2.obj
 0002:00020840       _GUIComboBox_GetItemCount  10086840 f   guielem2.obj
 0002:000208a0       _GUIComboBox_GetSelected   100868a0 f   guielem2.obj
 0002:00020900       _GUIComboBox_SetSelected   10086900 f   guielem2.obj
 0002:00020970       _GUIContextMenu_AddItem    10086970 f   guielem2.obj
 0002:000209f0       _GUIContextMenu_AddSeparator 100869f0 f   guielem2.obj
 0002:00020a50       _GUIContextMenu_GetItemCommandID 10086a50 f   guielem2.obj
 0002:00020ac0       _GUIContextMenu_GetItemCount 10086ac0 f   guielem2.obj
 0002:00020b20       _GUIContextMenu_GetItemText 10086b20 f   guielem2.obj
 0002:00020b90       _GUIContextMenu_GetSelectedItem 10086b90 f   guielem2.obj
 0002:00020bf0       _GUIContextMenu_GetSubMenu 10086bf0 f   guielem2.obj
 0002:00020c60       _GUIContextMenu_IsItemEnabled 10086c60 f   guielem2.obj
 0002:00020cd0       _GUIContextMenu_RemoveAllItems 10086cd0 f   guielem2.obj
 0002:00020d30       _GUIContextMenu_RemoveItem 10086d30 f   guielem2.obj
 0002:00020da0       _GUIContextMenu_SetItemCommandID 10086da0 f   guielem2.obj
 0002:00020e10       _GUIContextMenu_SetItemEnabled 10086e10 f   guielem2.obj
 0002:00020e80       _GUIContextMenu_SetItemText 10086e80 f   guielem2.obj
 0002:00020ef0       _GUIEditBox_EnableOverrideColor 10086ef0 f   guielem2.obj
 0002:00020f50       _GUIEditBox_GetMax         10086f50 f   guielem2.obj
 0002:00020fb0       _GUIEditBox_SetMax         10086fb0 f   guielem2.obj
 0002:00021020       _GUIEditBox_SetOverrideColor 10087020 f   guielem2.obj
 0002:000210b0       _GUIEditBox_SetOverrideFont 100870b0 f   guielem2.obj
 0002:00021110       _GUIFileOpenDialog_GetFilename 10087110 f   guielem2.obj
 0002:00021180       _GUIImage_SetImage         10087180 f   guielem2.obj
 0002:000211e0       _GUIImage_SetUseAlphaChannel 100871e0 f   guielem2.obj
 0002:00021240       _GUIFont_Draw              10087240 f   guielem2.obj
 0002:00021370       _GUIFont_GetCharacterFromPos 10087370 f   guielem2.obj
 0002:000213e0       _GUIFont_GetDimension      100873e0 f   guielem2.obj
 0002:00021470       _GUIFader_FadeIn           10087470 f   guielem2.obj
 0002:000214d0       _GUIFader_FadeOut          100874d0 f   guielem2.obj
 0002:00021530       _GUIFader_GetColor         10087530 f   guielem2.obj
 0002:000215b0       _GUIFader_IsReady          100875b0 f   guielem2.obj
 0002:00021620       _GUIFader_SetColor         10087620 f   guielem2.obj
 0002:000216b0       _GUIListBox_AddItem        100876b0 f   guielem2.obj
 0002:00021720       _GUIListBox_AddItemA       10087720 f   guielem2.obj
 0002:00021790       _GUIListBox_Clear          10087790 f   guielem2.obj
 0002:000217f0       _GUIListBox_GetItemCount   100877f0 f   guielem2.obj
 0002:00021850       _GUIListBox_GetListItem    10087850 f   guielem2.obj
 0002:000218c0       _GUIListBox_GetSelected    100878c0 f   guielem2.obj
 0002:00021920       _GUISpinBox_GetMax         10087920 f   guielem2.obj
 0002:00021980       _GUISpinBox_GetMin         10087980 f   guielem2.obj
 0002:000219e0       _GUISpinBox_GetStepSize    100879e0 f   guielem2.obj
 0002:00021a40       _GUISpinBox_GetValue       10087a40 f   guielem2.obj
 0002:00021aa0       _GUISpinBox_GetEditBox     10087aa0 f   guielem2.obj
 0002:00021b00       _GUISpinBox_SetRange       10087b00 f   guielem2.obj
 0002:00021b70       _GUISpinBox_SetStepSize    10087b70 f   guielem2.obj
 0002:00021be0       _GUISpinBox_SetValue       10087be0 f   guielem2.obj
 0002:00021c50       _GUISpinBox_SetDecimalPlaces 10087c50 f   guielem2.obj
 0002:00021cc0       _GUIListBox_SetSelected    10087cc0 f   guielem2.obj
 0002:00021d30       _GUIMeshViewer_GetMaterial 10087d30 f   guielem2.obj
 0002:00021d90       _GUIMeshViewer_SetMaterial 10087d90 f   guielem2.obj
 0002:00021df0       _GUIMeshViewer_SetMesh     10087df0 f   guielem2.obj
 0002:00021e50       _GUIWindow_GetCloseButton  10087e50 f   guielem2.obj
 0002:00021eb0       _GUIWindow_GetMaximizeButton 10087eb0 f   guielem2.obj
 0002:00021f10       _GUIWindow_GetMinimizeButton 10087f10 f   guielem2.obj
 0002:00021f70       _GUIScrollBar_GetPos       10087f70 f   guielem2.obj
 0002:00021fd0       _GUIScrollBar_SetMax       10087fd0 f   guielem2.obj
 0002:00022030       _GUIScrollBar_SetPos       10088030 f   guielem2.obj
 0002:000220a0       _GUIStaticText_EnableOverrideColor 100880a0 f   guielem2.obj
 0002:00022100       _GUIStaticText_GetTextHeight 10088100 f   guielem2.obj
 0002:00022160       _GUIStaticText_SetOverrideColor 10088160 f   guielem2.obj
 0002:000221f0       _GUIStaticText_SetOverrideFont 100881f0 f   guielem2.obj
 0002:00022250       _GUIStaticText_SetWordWrap 10088250 f   guielem2.obj
 0002:000222c0       _GUITab_GetNumber          100882c0 f   guielem2.obj
 0002:00022320       _GUITab_SetBackgroundColor 10088320 f   guielem2.obj
 0002:000223b0       _GUITab_SetDrawBackground  100883b0 f   guielem2.obj
 0002:00022410       _GUITabControl_AddTab      10088410 f   guielem2.obj
 0002:00022480       _GUITabControl_GetActiveTab 10088480 f   guielem2.obj
 0002:000224e0       _GUITabControl_GetTab      100884e0 f   guielem2.obj
 0002:00022540       _GUITabControl_GetTabCount 10088540 f   guielem2.obj
 0002:000225a0       _GUITabControl_SetActiveTab 100885a0 f   guielem2.obj
 0002:00022610       _GUIToolBar_AddButton      10088610 f   guielem2.obj
 0002:000226b0       ?GetGui@@YAPAVIGUIEnvironment@gui@irr@@PAX@Z 100886b0 f   guienv.obj
 0002:000226f0       _GuiEnv_AddButton          100886f0 f   guienv.obj
 0002:000227c0       _GuiEnv_AddCheckBox        100887c0 f   guienv.obj
 0002:00022890       _GuiEnv_AddComboBox        10088890 f   guienv.obj
 0002:00022950       _GuiEnv_AddContextMenu     10088950 f   guienv.obj
 0002:00022a10       _GuiEnv_AddEditBox         10088a10 f   guienv.obj
 0002:00022ae0       _GuiEnv_AddFileOpenDialog  10088ae0 f   guienv.obj
 0002:00022b80       _GuiEnv_AddImage           10088b80 f   guienv.obj
 0002:00022c50       _GuiEnv_GetBuiltInFont     10088c50 f   guienv.obj
 0002:00022cd0       _GuiEnv_AddImageA          10088cd0 f   guienv.obj
 0002:00022d80       _GuiEnv_AddInOutFader      10088d80 f   guienv.obj
 0002:00022e90       _GuiEnv_AddListBox         10088e90 f   guienv.obj
 0002:00022f50       _GuiEnv_AddMenu            10088f50 f   guienv.obj
 0002:00022fe0       _GuiEnv_AddMeshViewer      10088fe0 f   guienv.obj
 0002:000230b0       _GuiEnv_AddMessageBox      100890b0 f   guienv.obj
 0002:00023160       _GuiEnv_AddScrollBar       10089160 f   guienv.obj
 0002:00023220       _GuiEnv_AddStaticText      10089220 f   guienv.obj
 0002:00023300       _GuiEnv_AddTab             10089300 f   guienv.obj
 0002:000233c0       _GuiEnv_AddTabControl      100893c0 f   guienv.obj
 0002:00023480       _GuiEnv_AddToolBar         10089480 f   guienv.obj
 0002:00023510       _GuiEnv_AddWindow          10089510 f   guienv.obj
 0002:000235e0       _GuiEnv_AddColorSelectDialog 100895e0 f   guienv.obj
 0002:00023680       _GuiEnv_AddSpinBox         10089680 f   guienv.obj
 0002:00023750       _GuiEnv_CreateSkin         10089750 f   guienv.obj
 0002:000237d0       _GuiEnv_DrawAll            100897d0 f   guienv.obj
 0002:00023850       _GuiEnv_GetFont            10089850 f   guienv.obj
 0002:000238d0       _GuiEnv_Clear              100898d0 f   guienv.obj
 0002:00023950       _GuiEnv_GetRootGUIElement  10089950 f   guienv.obj
 0002:000239d0       _GuiEnv_GetSkin            100899d0 f   guienv.obj
 0002:00023a50       _GuiEnv_GetVideoDriver     10089a50 f   guienv.obj
 0002:00023ad0       _GuiEnv_HasFocus           10089ad0 f   guienv.obj
 0002:00023b60       _GuiEnv_LoadGUI            10089b60 f   guienv.obj
 0002:00023bf0       _GuiEnv_SaveGUI            10089bf0 f   guienv.obj
 0002:00023c80       _GuiEnv_PostEventFromUser  10089c80 f   guienv.obj
 0002:00023d10       _GuiEnv_RemoveFocus        10089d10 f   guienv.obj
 0002:00023d90       _GuiEnv_SetFocus           10089d90 f   guienv.obj
 0002:00023e10       _GuiEnv_SetSkin            10089e10 f   guienv.obj
 0002:00023e90       _GuiSkin_GetColor          10089e90 f   guienv.obj
 0002:00023f10       _GuiSkin_GetDefaultText    10089f10 f   guienv.obj
 0002:00023f80       _GuiSkin_GetFont           10089f80 f   guienv.obj
 0002:00023fe0       _GuiSkin_GetSize           10089fe0 f   guienv.obj
 0002:00024040       _GuiSkin_SetColor          1008a040 f   guienv.obj
 0002:000240e0       _GuiSkin_SetDefaultText    1008a0e0 f   guienv.obj
 0002:00024150       _GuiSkin_SetFont           1008a150 f   guienv.obj
 0002:000241c0       _GuiSkin_SetSize           1008a1c0 f   guienv.obj
 0002:00024230       _Material_Create           1008a230 f   material.obj
 0002:000242d0       ??0SMaterial@video@irr@@QAE@XZ 1008a2d0 f i material.obj
 0002:00024450       ??0SMaterialLayer@video@irr@@QAE@XZ 1008a450 f i material.obj
 0002:000244d0       ??1SMaterialLayer@video@irr@@QAE@XZ 1008a4d0 f i material.obj
 0002:00024540       _MaterialLayer_Create      1008a540 f   material.obj
 0002:000245e0       ?GetMatFromIntPtr@@YAPAVSMaterial@video@irr@@PAX@Z 1008a5e0 f   material.obj
 0002:00024620       ?GetMatLyrFromIntPtr@@YAPAVSMaterialLayer@video@irr@@PAX@Z 1008a620 f   material.obj
 0002:00024660       _Material_GetAmbientColor  1008a660 f   material.obj
 0002:000246d0       _Material_GetDiffuseColor  1008a6d0 f   material.obj
 0002:00024740       _Material_GetEmissiveColor 1008a740 f   material.obj
 0002:000247b0       _Material_GetMaterialType  1008a7b0 f   material.obj
 0002:00024800       _Material_GetMaterialTypeParam 1008a800 f   material.obj
 0002:00024860       _Material_GetShininess     1008a860 f   material.obj
 0002:000248c0       _Material_GetSpecularColor 1008a8c0 f   material.obj
 0002:00024930       ?Material_GetTexture@@YAPAXPAXH@Z 1008a930 f   material.obj
 0002:00024990       ?getTexture@SMaterial@video@irr@@QBEPAVITexture@23@I@Z 1008a990 f i material.obj
 0002:000249f0       _Material_SetTexture       1008a9f0 f   material.obj
 0002:00024a50       _Material_GetBackfaceCulling 1008aa50 f   material.obj
 0002:00024ab0       _Material_GetFogEnable     1008aab0 f   material.obj
 0002:00024b10       _Material_GetGouraudShading 1008ab10 f   material.obj
 0002:00024b70       _Material_GetLighting      1008ab70 f   material.obj
 0002:00024bd0       _Material_GetNormalizeNormals 1008abd0 f   material.obj
 0002:00024c30       _Material_GetWireframe     1008ac30 f   material.obj
 0002:00024c90       _Material_GetZBuffer       1008ac90 f   material.obj
 0002:00024cf0       _Material_GetZWriteEnable  1008acf0 f   material.obj
 0002:00024d50       _Material_SetAmbientColor  1008ad50 f   material.obj
 0002:00024de0       _Material_SetDiffuseColor  1008ade0 f   material.obj
 0002:00024e70       _Material_SetEmissiveColor 1008ae70 f   material.obj
 0002:00024f00       _Material_SetMaterialType  1008af00 f   material.obj
 0002:00024f60       _Material_SetMaterialTypeParam 1008af60 f   material.obj
 0002:00024fc0       _Material_SetShininess     1008afc0 f   material.obj
 0002:00025020       _Material_SetSpecularColor 1008b020 f   material.obj
 0002:000250b0       _Material_SetBackfaceCulling 1008b0b0 f   material.obj
 0002:00025110       _Material_SetFogEnable     1008b110 f   material.obj
 0002:00025170       _Material_SetGouraudShading 1008b170 f   material.obj
 0002:000251d0       _Material_SetLighting      1008b1d0 f   material.obj
 0002:00025230       _Material_SetNormalizeNormals 1008b230 f   material.obj
 0002:00025290       _Material_SetWireframe     1008b290 f   material.obj
 0002:000252f0       _Material_SetZBuffer       1008b2f0 f   material.obj
 0002:00025350       _Material_SetZWriteEnable  1008b350 f   material.obj
 0002:000253b0       _Material_GetMaterialLayer 1008b3b0 f   material.obj
 0002:00025420       _Material_SetMaterialLayer 1008b420 f   material.obj
 0002:000254a0       ??4SMaterialLayer@video@irr@@QAEAAV012@ABV012@@Z 1008b4a0 f i material.obj
 0002:00025660       _MaterialLayer_GetAnisotropicFilter 1008b660 f   material.obj
 0002:000256c0       _MaterialLayer_SetAnisotropicFilter 1008b6c0 f   material.obj
 0002:00025720       _MaterialLayer_GetBilinearFilter 1008b720 f   material.obj
 0002:00025780       _MaterialLayer_SetBilinearFilter 1008b780 f   material.obj
 0002:000257e0       _MaterialLayer_GetTrilinearFilter 1008b7e0 f   material.obj
 0002:00025840       _MaterialLayer_SetTrilinearFilter 1008b840 f   material.obj
 0002:000258a0       _MaterialLayer_SetTexture  1008b8a0 f   material.obj
 0002:00025900       _MaterialLayer_GetTexture  1008b900 f   material.obj
 0002:00025950       _MaterialLayer_GetTransform 1008b950 f   material.obj
 0002:000259d0       ?getTextureMatrix@SMaterialLayer@video@irr@@QAEAAV?$CMatrix4@M@core@3@XZ 1008b9d0 f i material.obj
 0002:00025ae0       _MaterialLayer_SetTransform 1008bae0 f   material.obj
 0002:00025b50       ?setTextureMatrix@SMaterialLayer@video@irr@@QAEXABV?$CMatrix4@M@core@3@@Z 1008bb50 f i material.obj
 0002:00025c70       _Mesh_Create               1008bc70 f   mesh.obj
 0002:00025d10       ??0SMesh@scene@irr@@QAE@XZ 1008bd10 f i mesh.obj
 0002:00025e60       ??1IMesh@scene@irr@@UAE@XZ 1008be60 f i mesh.obj
 0002:00025ec0       ??_EIMesh@scene@irr@@UAEPAXI@Z 1008bec0 f i mesh.obj
 0002:00025ec0       ??_GIMesh@scene@irr@@UAEPAXI@Z 1008bec0 f i mesh.obj
 0002:00025f40       ??_DIMesh@scene@irr@@QAEXXZ 1008bf40 f i mesh.obj
 0002:00025fa0       ??0IMesh@scene@irr@@QAE@XZ 1008bfa0 f i mesh.obj
 0002:00026050       ?getMeshBufferCount@SMesh@scene@irr@@UBEIXZ 1008c050 f i mesh.obj
 0002:000260b0       ?getMeshBuffer@SMesh@scene@irr@@UBEPAVIMeshBuffer@23@I@Z 1008c0b0 f i mesh.obj
 0002:00026110       ?getMeshBuffer@SMesh@scene@irr@@UBEPAVIMeshBuffer@23@ABVSMaterial@video@3@@Z 1008c110 f i mesh.obj
 0002:000261f0       ??8SMaterial@video@irr@@QBE_NABV012@@Z 1008c1f0 f i mesh.obj
 0002:00026260       ??9SMaterial@video@irr@@QBE_NABV012@@Z 1008c260 f i mesh.obj
 0002:00026530       ??9SColor@video@irr@@QBE_NABV012@@Z 1008c530 f i mesh.obj
 0002:00026580       ??9SMaterialLayer@video@irr@@QBE_NABV012@@Z 1008c580 f i mesh.obj
 0002:00026680       ?getBoundingBox@SMesh@scene@irr@@UBEABV?$aabbox3d@M@core@3@XZ 1008c680 f i mesh.obj
 0002:000266c0       ?setBoundingBox@SMesh@scene@irr@@UAEXABV?$aabbox3d@M@core@3@@Z 1008c6c0 f i mesh.obj
 0002:00026720       ??4?$aabbox3d@M@core@irr@@QAEAAV012@ABV012@@Z 1008c720 f i mesh.obj
 0002:00026790       ?setMaterialFlag@SMesh@scene@irr@@UAEXW4E_MATERIAL_FLAG@video@3@_N@Z 1008c790 f i mesh.obj
 0002:00026860       ?setFlag@SMaterial@video@irr@@QAEXW4E_MATERIAL_FLAG@23@_N@Z 1008c860 f i mesh.obj
 0002:00026a80       ??_GSMesh@scene@irr@@UAEPAXI@Z 1008ca80 f i mesh.obj
 0002:00026a80       ??_ESMesh@scene@irr@@UAEPAXI@Z 1008ca80 f i mesh.obj
 0002:00026b00       ??_DSMesh@scene@irr@@QAEXXZ 1008cb00 f i mesh.obj
 0002:00026b60       ??1SMesh@scene@irr@@UAE@XZ 1008cb60 f i mesh.obj
 0002:00026ca0       _Mesh_AddMeshBuffer        1008cca0 f   mesh.obj
 0002:00026cf0       ?addMeshBuffer@SMesh@scene@irr@@QAEXPAVIMeshBuffer@23@@Z 1008ccf0 f i mesh.obj
 0002:00026d70       _Mesh_GetBoundingBox       1008cd70 f   mesh.obj
 0002:00026df0       _Mesh_SetMaterialFlag      1008cdf0 f   mesh.obj
 0002:00026e60       _Mesh_GetMeshBufferCount   1008ce60 f   mesh.obj
 0002:00026ec0       _Mesh_GetMeshBuffer        1008cec0 f   mesh.obj
 0002:00026f20       _AnimatedMesh_GetBoundingBox 1008cf20 f   mesh.obj
 0002:00026fa0       _AnimatedMesh_GetMesh      1008cfa0 f   mesh.obj
 0002:00027010       _AnimatedMesh_GetMeshType  1008d010 f   mesh.obj
 0002:00027070       _AnimatedMesh_GetFrameLoopMD2 1008d070 f   mesh.obj
 0002:00027160       _AnimatedMesh_GetFrameLoopMD2a 1008d160 f   mesh.obj
 0002:00027260       _AnimationMesh_GetAnimationCountMD2 1008d260 f   mesh.obj
 0002:000272c0       _AnimationMesh_GetAnimationNameMD2 1008d2c0 f   mesh.obj
 0002:00027330       ?GetMBForIntPtr@@YAPAVIMeshBuffer@scene@irr@@PAX@Z 1008d330 f   mesh.obj
 0002:00027370       _MeshBuffer_Create         1008d370 f   mesh.obj
 0002:000274f0       _MeshBuffer_GetBoundingBox 1008d4f0 f   mesh.obj
 0002:00027590       _MeshBuffer_SetBoundingBox 1008d590 f   mesh.obj
 0002:00027660       _MeshBuffer_GetIndexCount  1008d660 f   mesh.obj
 0002:000276e0       _MeshBuffer_GetIndices     1008d6e0 f   mesh.obj
 0002:000277d0       _MeshBuffer_SetIndices     1008d7d0 f   mesh.obj
 0002:000278a0       _MeshBuffer_GetIndex       1008d8a0 f   mesh.obj
 0002:00027920       _MeshBuffer_SetIndex       1008d920 f   mesh.obj
 0002:00027ac0       _MeshBuffer_GetMaterial    1008dac0 f   mesh.obj
 0002:00027b40       _MeshBuffer_SetMaterial    1008db40 f   mesh.obj
 0002:00027bd0       ??4SMaterial@video@irr@@QAEAAV012@ABV012@@Z 1008dbd0 f i mesh.obj
 0002:00027d70       _MeshBuffer_GetVertexCount 1008dd70 f   mesh.obj
 0002:00027df0       _MeshBuffer_GetVertexType  1008ddf0 f   mesh.obj
 0002:00027e70       _MeshBuffer_GetVertex      1008de70 f   mesh.obj
 0002:00027f00       _MeshBuffer_SetVertex      1008df00 f   mesh.obj
 0002:00027fd0       ??4S3DVertex@video@irr@@QAEAAU012@ABU012@@Z 1008dfd0 f i mesh.obj
 0002:00028070       _MeshBuffer_GetVertex2T    1008e070 f   mesh.obj
 0002:00028100       _MeshBuffer_SetVertex2T    1008e100 f   mesh.obj
 0002:000281d0       ??4S3DVertex2TCoords@video@irr@@QAEAAU012@ABU012@@Z 1008e1d0 f i mesh.obj
 0002:00028240       ?GetMeshCacheFromIntPtr@@YAPAVIMeshCache@scene@irr@@PAX@Z 1008e240 f   mesh.obj
 0002:00028280       _MeshCache_AddMesh         1008e280 f   mesh.obj
 0002:00028310       _MeshCache_Clear           1008e310 f   mesh.obj
 0002:00028390       _MeshCache_ClearUnusedMeshes 1008e390 f   mesh.obj
 0002:00028410       _MeshCache_GetMeshByFilename 1008e410 f   mesh.obj
 0002:000284a0       _MeshCache_GetMeshByIndex  1008e4a0 f   mesh.obj
 0002:00028520       _MeshCache_GetMeshCount    1008e520 f   mesh.obj
 0002:000285a0       _MeshCache_GetMeshFilename 1008e5a0 f   mesh.obj
 0002:00028630       _MeshCache_GetMeshFilenameA 1008e630 f   mesh.obj
 0002:000286c0       _MeshCache_GetMeshFilenameN 1008e6c0 f   mesh.obj
 0002:00028750       _MeshCache_GetMeshIndex    1008e750 f   mesh.obj
 0002:000287d0       _MeshCache_GetMeshIndexA   1008e7d0 f   mesh.obj
 0002:00028850       _MeshCache_IsMeshLoaded    1008e850 f   mesh.obj
 0002:000288e0       _MeshCache_RemoveMesh      1008e8e0 f   mesh.obj
 0002:00028960       _MeshCache_RemoveMeshA     1008e960 f   mesh.obj
 0002:000289e0       _MeshCache_SetMeshFilename 1008e9e0 f   mesh.obj
 0002:00028a70       _MeshCache_SetMeshFilenameA 1008ea70 f   mesh.obj
 0002:00028b00       _MeshCache_SetMeshFilenameN 1008eb00 f   mesh.obj
 0002:00028b90       ??4?$vector2d@M@core@irr@@QAEAAV012@ABV012@@Z 1008eb90 f i mesh.obj
 0002:00028bf0       ?push_back@?$array@US3DVertex2TCoords@video@irr@@V?$irrAllocator@US3DVertex2TCoords@video@irr@@@core@3@@core@irr@@QAEXABUS3DVertex2TCoords@video@3@@Z 1008ebf0 f i mesh.obj
 0002:00028d50       ?push_back@?$array@US3DVertex@video@irr@@V?$irrAllocator@US3DVertex@video@irr@@@core@3@@core@irr@@QAEXABUS3DVertex@video@3@@Z 1008ed50 f i mesh.obj
 0002:00028eb0       ??0S3DVertex@video@irr@@QAE@ABU012@@Z 1008eeb0 f i mesh.obj
 0002:00028f50       ??0?$vector2d@M@core@irr@@QAE@ABV012@@Z 1008ef50 f i mesh.obj
 0002:00028fb0       ?push_back@?$array@GV?$irrAllocator@G@core@irr@@@core@irr@@QAEXABG@Z 1008efb0 f i mesh.obj
 0002:00029100       ?set_pointer@?$array@GV?$irrAllocator@G@core@irr@@@core@irr@@QAEXPAGI@Z 1008f100 f i mesh.obj
 0002:000291d0       ??0?$array@PAVIMeshBuffer@scene@irr@@V?$irrAllocator@PAVIMeshBuffer@scene@irr@@@core@3@@core@irr@@QAE@XZ 1008f1d0 f i mesh.obj
 0002:00029260       ??1?$array@PAVIMeshBuffer@scene@irr@@V?$irrAllocator@PAVIMeshBuffer@scene@irr@@@core@3@@core@irr@@QAE@XZ 1008f260 f i mesh.obj
 0002:00029360       ?push_back@?$array@PAVIMeshBuffer@scene@irr@@V?$irrAllocator@PAVIMeshBuffer@scene@irr@@@core@3@@core@irr@@QAEXABQAVIMeshBuffer@scene@3@@Z 1008f360 f i mesh.obj
 0002:000294b0       ??A?$array@PAVIMeshBuffer@scene@irr@@V?$irrAllocator@PAVIMeshBuffer@scene@irr@@@core@3@@core@irr@@QAEAAPAVIMeshBuffer@scene@2@I@Z 1008f4b0 f i mesh.obj
 0002:00029520       ??A?$array@PAVIMeshBuffer@scene@irr@@V?$irrAllocator@PAVIMeshBuffer@scene@irr@@@core@3@@core@irr@@QBEABQAVIMeshBuffer@scene@2@I@Z 1008f520 f i mesh.obj
 0002:00029590       ?size@?$array@PAVIMeshBuffer@scene@irr@@V?$irrAllocator@PAVIMeshBuffer@scene@irr@@@core@3@@core@irr@@QBEIXZ 1008f590 f i mesh.obj
 0002:000295d0       ??1?$irrAllocator@PAVIMeshBuffer@scene@irr@@@core@irr@@UAE@XZ 1008f5d0 f i mesh.obj
 0002:00029610       ?internal_new@?$irrAllocator@PAVIMeshBuffer@scene@irr@@@core@irr@@MAEPAXI@Z 1008f610 f i mesh.obj
 0002:00029670       ?internal_delete@?$irrAllocator@PAVIMeshBuffer@scene@irr@@@core@irr@@MAEXPAX@Z 1008f670 f i mesh.obj
 0002:000296d0       ??0?$CMeshBuffer@US3DVertex@video@irr@@@scene@irr@@QAE@XZ 1008f6d0 f i mesh.obj
 0002:00029850       ??1IMeshBuffer@scene@irr@@UAE@XZ 1008f850 f i mesh.obj
 0002:000298b0       ??_GIMeshBuffer@scene@irr@@UAEPAXI@Z 1008f8b0 f i mesh.obj
 0002:000298b0       ??_EIMeshBuffer@scene@irr@@UAEPAXI@Z 1008f8b0 f i mesh.obj
 0002:00029930       ??_DIMeshBuffer@scene@irr@@QAEXXZ 1008f930 f i mesh.obj
 0002:00029990       ??0IMeshBuffer@scene@irr@@QAE@XZ 1008f990 f i mesh.obj
 0002:00029a40       ??1SMaterial@video@irr@@QAE@XZ 1008fa40 f i mesh.obj
 0002:00029aa0       ??0?$array@US3DVertex@video@irr@@V?$irrAllocator@US3DVertex@video@irr@@@core@3@@core@irr@@QAE@XZ 1008faa0 f i mesh.obj
 0002:00029b30       ??1?$array@US3DVertex@video@irr@@V?$irrAllocator@US3DVertex@video@irr@@@core@3@@core@irr@@QAE@XZ 1008fb30 f i mesh.obj
 0002:00029c30       ??1?$irrAllocator@US3DVertex@video@irr@@@core@irr@@UAE@XZ 1008fc30 f i mesh.obj
 0002:00029c70       ?internal_new@?$irrAllocator@US3DVertex@video@irr@@@core@irr@@MAEPAXI@Z 1008fc70 f i mesh.obj
 0002:00029cd0       ?internal_delete@?$irrAllocator@US3DVertex@video@irr@@@core@irr@@MAEXPAX@Z 1008fcd0 f i mesh.obj
 0002:00029d30       ??0?$array@GV?$irrAllocator@G@core@irr@@@core@irr@@QAE@XZ 1008fd30 f i mesh.obj
 0002:00029dc0       ??1?$array@GV?$irrAllocator@G@core@irr@@@core@irr@@QAE@XZ 1008fdc0 f i mesh.obj
 0002:00029ec0       ??1?$irrAllocator@G@core@irr@@UAE@XZ 1008fec0 f i mesh.obj
 0002:00029f00       ?internal_new@?$irrAllocator@G@core@irr@@MAEPAXI@Z 1008ff00 f i mesh.obj
 0002:00029f60       ?internal_delete@?$irrAllocator@G@core@irr@@MAEXPAX@Z 1008ff60 f i mesh.obj
 0002:00029fc0       ?getMaterial@?$CMeshBuffer@US3DVertex@video@irr@@@scene@irr@@UBEABVSMaterial@video@3@XZ 1008ffc0 f i mesh.obj
 0002:0002a000       ?getMaterial@?$CMeshBuffer@US3DVertex@video@irr@@@scene@irr@@UAEAAVSMaterial@video@3@XZ 10090000 f i mesh.obj
 0002:0002a040       ?getVertices@?$CMeshBuffer@US3DVertex@video@irr@@@scene@irr@@UBEPBXXZ 10090040 f i mesh.obj
 0002:0002a0a0       ?const_pointer@?$array@US3DVertex@video@irr@@V?$irrAllocator@US3DVertex@video@irr@@@core@3@@core@irr@@QBEPBUS3DVertex@video@3@XZ 100900a0 f i mesh.obj
 0002:0002a0e0       ?getVertices@?$CMeshBuffer@US3DVertex@video@irr@@@scene@irr@@UAEPAXXZ 100900e0 f i mesh.obj
 0002:0002a140       ?pointer@?$array@US3DVertex@video@irr@@V?$irrAllocator@US3DVertex@video@irr@@@core@3@@core@irr@@QAEPAUS3DVertex@video@3@XZ 10090140 f i mesh.obj
 0002:0002a180       ?getVertexCount@?$CMeshBuffer@US3DVertex@video@irr@@@scene@irr@@UBEIXZ 10090180 f i mesh.obj
 0002:0002a1e0       ?size@?$array@US3DVertex@video@irr@@V?$irrAllocator@US3DVertex@video@irr@@@core@3@@core@irr@@QBEIXZ 100901e0 f i mesh.obj
 0002:0002a220       ?getIndices@?$CMeshBuffer@US3DVertex@video@irr@@@scene@irr@@UBEPBGXZ 10090220 f i mesh.obj
 0002:0002a280       ?const_pointer@?$array@GV?$irrAllocator@G@core@irr@@@core@irr@@QBEPBGXZ 10090280 f i mesh.obj
 0002:0002a2c0       ?getIndices@?$CMeshBuffer@US3DVertex@video@irr@@@scene@irr@@UAEPAGXZ 100902c0 f i mesh.obj
 0002:0002a320       ?pointer@?$array@GV?$irrAllocator@G@core@irr@@@core@irr@@QAEPAGXZ 10090320 f i mesh.obj
 0002:0002a360       ?getIndexCount@?$CMeshBuffer@US3DVertex@video@irr@@@scene@irr@@UBEIXZ 10090360 f i mesh.obj
 0002:0002a3c0       ?size@?$array@GV?$irrAllocator@G@core@irr@@@core@irr@@QBEIXZ 100903c0 f i mesh.obj
 0002:0002a400       ?getBoundingBox@?$CMeshBuffer@US3DVertex@video@irr@@@scene@irr@@UBEABV?$aabbox3d@M@core@3@XZ 10090400 f i mesh.obj
 0002:0002a440       ?setBoundingBox@?$CMeshBuffer@US3DVertex@video@irr@@@scene@irr@@UAEXABV?$aabbox3d@M@core@3@@Z 10090440 f i mesh.obj
 0002:0002a4a0       ?recalculateBoundingBox@?$CMeshBuffer@US3DVertex@video@irr@@@scene@irr@@UAEXXZ 100904a0 f i mesh.obj
 0002:0002a5a0       ??A?$array@US3DVertex@video@irr@@V?$irrAllocator@US3DVertex@video@irr@@@core@3@@core@irr@@QAEAAUS3DVertex@video@2@I@Z 100905a0 f i mesh.obj
 0002:0002a610       ?empty@?$array@US3DVertex@video@irr@@V?$irrAllocator@US3DVertex@video@irr@@@core@3@@core@irr@@QBE_NXZ 10090610 f i mesh.obj
 0002:0002a660       ?getVertexType@?$CMeshBuffer@US3DVertex@video@irr@@@scene@irr@@UBE?AW4E_VERTEX_TYPE@video@3@XZ 10090660 f i mesh.obj
 0002:0002a6c0       ??0S3DVertex@video@irr@@QAE@XZ 100906c0 f i mesh.obj
 0002:0002a740       ?getType@S3DVertex@video@irr@@QBE?AW4E_VERTEX_TYPE@23@XZ 10090740 f i mesh.obj
 0002:0002a780       ??0?$vector2d@M@core@irr@@QAE@XZ 10090780 f i mesh.obj
 0002:0002a7d0       ?append@?$CMeshBuffer@US3DVertex@video@irr@@@scene@irr@@UAEXQBXIQBGI@Z 100907d0 f i mesh.obj
 0002:0002a930       ?append@?$CMeshBuffer@US3DVertex@video@irr@@@scene@irr@@UAEXQBVIMeshBuffer@23@@Z 10090930 f i mesh.obj
 0002:0002ab40       ??0?$CMeshBuffer@US3DVertex2TCoords@video@irr@@@scene@irr@@QAE@XZ 10090b40 f i mesh.obj
 0002:0002acc0       ??0?$array@US3DVertex2TCoords@video@irr@@V?$irrAllocator@US3DVertex2TCoords@video@irr@@@core@3@@core@irr@@QAE@XZ 10090cc0 f i mesh.obj
 0002:0002ad50       ??1?$array@US3DVertex2TCoords@video@irr@@V?$irrAllocator@US3DVertex2TCoords@video@irr@@@core@3@@core@irr@@QAE@XZ 10090d50 f i mesh.obj
 0002:0002ae50       ??1?$irrAllocator@US3DVertex2TCoords@video@irr@@@core@irr@@UAE@XZ 10090e50 f i mesh.obj
 0002:0002ae90       ?internal_new@?$irrAllocator@US3DVertex2TCoords@video@irr@@@core@irr@@MAEPAXI@Z 10090e90 f i mesh.obj
 0002:0002aef0       ?internal_delete@?$irrAllocator@US3DVertex2TCoords@video@irr@@@core@irr@@MAEXPAX@Z 10090ef0 f i mesh.obj
 0002:0002af50       ?getMaterial@?$CMeshBuffer@US3DVertex2TCoords@video@irr@@@scene@irr@@UBEABVSMaterial@video@3@XZ 10090f50 f i mesh.obj
 0002:0002af90       ?getMaterial@?$CMeshBuffer@US3DVertex2TCoords@video@irr@@@scene@irr@@UAEAAVSMaterial@video@3@XZ 10090f90 f i mesh.obj
 0002:0002afd0       ?getVertices@?$CMeshBuffer@US3DVertex2TCoords@video@irr@@@scene@irr@@UBEPBXXZ 10090fd0 f i mesh.obj
 0002:0002b030       ?const_pointer@?$array@US3DVertex2TCoords@video@irr@@V?$irrAllocator@US3DVertex2TCoords@video@irr@@@core@3@@core@irr@@QBEPBUS3DVertex2TCoords@video@3@XZ 10091030 f i mesh.obj
 0002:0002b070       ?getVertices@?$CMeshBuffer@US3DVertex2TCoords@video@irr@@@scene@irr@@UAEPAXXZ 10091070 f i mesh.obj
 0002:0002b0d0       ?pointer@?$array@US3DVertex2TCoords@video@irr@@V?$irrAllocator@US3DVertex2TCoords@video@irr@@@core@3@@core@irr@@QAEPAUS3DVertex2TCoords@video@3@XZ 100910d0 f i mesh.obj
 0002:0002b110       ?getVertexCount@?$CMeshBuffer@US3DVertex2TCoords@video@irr@@@scene@irr@@UBEIXZ 10091110 f i mesh.obj
 0002:0002b170       ?size@?$array@US3DVertex2TCoords@video@irr@@V?$irrAllocator@US3DVertex2TCoords@video@irr@@@core@3@@core@irr@@QBEIXZ 10091170 f i mesh.obj
 0002:0002b1b0       ?getIndices@?$CMeshBuffer@US3DVertex2TCoords@video@irr@@@scene@irr@@UBEPBGXZ 100911b0 f i mesh.obj
 0002:0002b210       ?getIndices@?$CMeshBuffer@US3DVertex2TCoords@video@irr@@@scene@irr@@UAEPAGXZ 10091210 f i mesh.obj
 0002:0002b270       ?getIndexCount@?$CMeshBuffer@US3DVertex2TCoords@video@irr@@@scene@irr@@UBEIXZ 10091270 f i mesh.obj
 0002:0002b2d0       ?getBoundingBox@?$CMeshBuffer@US3DVertex2TCoords@video@irr@@@scene@irr@@UBEABV?$aabbox3d@M@core@3@XZ 100912d0 f i mesh.obj
 0002:0002b310       ?setBoundingBox@?$CMeshBuffer@US3DVertex2TCoords@video@irr@@@scene@irr@@UAEXABV?$aabbox3d@M@core@3@@Z 10091310 f i mesh.obj
 0002:0002b370       ?recalculateBoundingBox@?$CMeshBuffer@US3DVertex2TCoords@video@irr@@@scene@irr@@UAEXXZ 10091370 f i mesh.obj
 0002:0002b470       ??A?$array@US3DVertex2TCoords@video@irr@@V?$irrAllocator@US3DVertex2TCoords@video@irr@@@core@3@@core@irr@@QAEAAUS3DVertex2TCoords@video@2@I@Z 10091470 f i mesh.obj
 0002:0002b4e0       ?empty@?$array@US3DVertex2TCoords@video@irr@@V?$irrAllocator@US3DVertex2TCoords@video@irr@@@core@3@@core@irr@@QBE_NXZ 100914e0 f i mesh.obj
 0002:0002b530       ?getVertexType@?$CMeshBuffer@US3DVertex2TCoords@video@irr@@@scene@irr@@UBE?AW4E_VERTEX_TYPE@video@3@XZ 10091530 f i mesh.obj
 0002:0002b590       ??0S3DVertex2TCoords@video@irr@@QAE@XZ 10091590 f i mesh.obj
 0002:0002b5f0       ?getType@S3DVertex2TCoords@video@irr@@QBE?AW4E_VERTEX_TYPE@23@XZ 100915f0 f i mesh.obj
 0002:0002b630       ?append@?$CMeshBuffer@US3DVertex2TCoords@video@irr@@@scene@irr@@UAEXQBXIQBGI@Z 10091630 f i mesh.obj
 0002:0002b790       ?append@?$CMeshBuffer@US3DVertex2TCoords@video@irr@@@scene@irr@@UAEXQBVIMeshBuffer@23@@Z 10091790 f i mesh.obj
 0002:0002b9a0       ??0?$CMeshBuffer@US3DVertexTangents@video@irr@@@scene@irr@@QAE@XZ 100919a0 f i mesh.obj
 0002:0002bb20       ??0?$array@US3DVertexTangents@video@irr@@V?$irrAllocator@US3DVertexTangents@video@irr@@@core@3@@core@irr@@QAE@XZ 10091b20 f i mesh.obj
 0002:0002bbb0       ??1?$array@US3DVertexTangents@video@irr@@V?$irrAllocator@US3DVertexTangents@video@irr@@@core@3@@core@irr@@QAE@XZ 10091bb0 f i mesh.obj
 0002:0002bcb0       ??1?$irrAllocator@US3DVertexTangents@video@irr@@@core@irr@@UAE@XZ 10091cb0 f i mesh.obj
 0002:0002bcf0       ?internal_new@?$irrAllocator@US3DVertexTangents@video@irr@@@core@irr@@MAEPAXI@Z 10091cf0 f i mesh.obj
 0002:0002bd50       ?internal_delete@?$irrAllocator@US3DVertexTangents@video@irr@@@core@irr@@MAEXPAX@Z 10091d50 f i mesh.obj
 0002:0002bdb0       ?getMaterial@?$CMeshBuffer@US3DVertexTangents@video@irr@@@scene@irr@@UBEABVSMaterial@video@3@XZ 10091db0 f i mesh.obj
 0002:0002bdf0       ?getMaterial@?$CMeshBuffer@US3DVertexTangents@video@irr@@@scene@irr@@UAEAAVSMaterial@video@3@XZ 10091df0 f i mesh.obj
 0002:0002be30       ?getVertices@?$CMeshBuffer@US3DVertexTangents@video@irr@@@scene@irr@@UBEPBXXZ 10091e30 f i mesh.obj
 0002:0002be90       ?const_pointer@?$array@US3DVertexTangents@video@irr@@V?$irrAllocator@US3DVertexTangents@video@irr@@@core@3@@core@irr@@QBEPBUS3DVertexTangents@video@3@XZ 10091e90 f i mesh.obj
 0002:0002bed0       ?getVertices@?$CMeshBuffer@US3DVertexTangents@video@irr@@@scene@irr@@UAEPAXXZ 10091ed0 f i mesh.obj
 0002:0002bf30       ?pointer@?$array@US3DVertexTangents@video@irr@@V?$irrAllocator@US3DVertexTangents@video@irr@@@core@3@@core@irr@@QAEPAUS3DVertexTangents@video@3@XZ 10091f30 f i mesh.obj
 0002:0002bf70       ?getVertexCount@?$CMeshBuffer@US3DVertexTangents@video@irr@@@scene@irr@@UBEIXZ 10091f70 f i mesh.obj
 0002:0002bfd0       ?size@?$array@US3DVertexTangents@video@irr@@V?$irrAllocator@US3DVertexTangents@video@irr@@@core@3@@core@irr@@QBEIXZ 10091fd0 f i mesh.obj
 0002:0002c010       ?getIndices@?$CMeshBuffer@US3DVertexTangents@video@irr@@@scene@irr@@UBEPBGXZ 10092010 f i mesh.obj
 0002:0002c070       ?getIndices@?$CMeshBuffer@US3DVertexTangents@video@irr@@@scene@irr@@UAEPAGXZ 10092070 f i mesh.obj
 0002:0002c0d0       ?getIndexCount@?$CMeshBuffer@US3DVertexTangents@video@irr@@@scene@irr@@UBEIXZ 100920d0 f i mesh.obj
 0002:0002c130       ?getBoundingBox@?$CMeshBuffer@US3DVertexTangents@video@irr@@@scene@irr@@UBEABV?$aabbox3d@M@core@3@XZ 10092130 f i mesh.obj
 0002:0002c170       ?setBoundingBox@?$CMeshBuffer@US3DVertexTangents@video@irr@@@scene@irr@@UAEXABV?$aabbox3d@M@core@3@@Z 10092170 f i mesh.obj
 0002:0002c1d0       ?recalculateBoundingBox@?$CMeshBuffer@US3DVertexTangents@video@irr@@@scene@irr@@UAEXXZ 100921d0 f i mesh.obj
 0002:0002c2d0       ??A?$array@US3DVertexTangents@video@irr@@V?$irrAllocator@US3DVertexTangents@video@irr@@@core@3@@core@irr@@QAEAAUS3DVertexTangents@video@2@I@Z 100922d0 f i mesh.obj
 0002:0002c340       ?empty@?$array@US3DVertexTangents@video@irr@@V?$irrAllocator@US3DVertexTangents@video@irr@@@core@3@@core@irr@@QBE_NXZ 10092340 f i mesh.obj
 0002:0002c390       ?getVertexType@?$CMeshBuffer@US3DVertexTangents@video@irr@@@scene@irr@@UBE?AW4E_VERTEX_TYPE@video@3@XZ 10092390 f i mesh.obj
 0002:0002c3f0       ??0S3DVertexTangents@video@irr@@QAE@XZ 100923f0 f i mesh.obj
 0002:0002c460       ?getType@S3DVertexTangents@video@irr@@QBE?AW4E_VERTEX_TYPE@23@XZ 10092460 f i mesh.obj
 0002:0002c4a0       ?append@?$CMeshBuffer@US3DVertexTangents@video@irr@@@scene@irr@@UAEXQBXIQBGI@Z 100924a0 f i mesh.obj
 0002:0002c600       ?push_back@?$array@US3DVertexTangents@video@irr@@V?$irrAllocator@US3DVertexTangents@video@irr@@@core@3@@core@irr@@QAEXABUS3DVertexTangents@video@3@@Z 10092600 f i mesh.obj
 0002:0002c760       ?append@?$CMeshBuffer@US3DVertexTangents@video@irr@@@scene@irr@@UAEXQBVIMeshBuffer@23@@Z 10092760 f i mesh.obj
 0002:0002c970       ??0?$irrAllocator@US3DVertexTangents@video@irr@@@core@irr@@QAE@XZ 10092970 f i mesh.obj
 0002:0002c9c0       ??0S3DVertexTangents@video@irr@@QAE@ABU012@@Z 100929c0 f i mesh.obj
 0002:0002ca50       ??_E?$irrAllocator@US3DVertexTangents@video@irr@@@core@irr@@UAEPAXI@Z 10092a50 f i mesh.obj
 0002:0002ca50       ??_G?$irrAllocator@US3DVertexTangents@video@irr@@@core@irr@@UAEPAXI@Z 10092a50 f i mesh.obj
 0002:0002cac0       ??0?$irrAllocator@US3DVertex2TCoords@video@irr@@@core@irr@@QAE@XZ 10092ac0 f i mesh.obj
 0002:0002cb10       ??0S3DVertex2TCoords@video@irr@@QAE@ABU012@@Z 10092b10 f i mesh.obj
 0002:0002cb80       ??_G?$irrAllocator@US3DVertex2TCoords@video@irr@@@core@irr@@UAEPAXI@Z 10092b80 f i mesh.obj
 0002:0002cb80       ??_E?$irrAllocator@US3DVertex2TCoords@video@irr@@@core@irr@@UAEPAXI@Z 10092b80 f i mesh.obj
 0002:0002cbf0       ??0?$irrAllocator@US3DVertex@video@irr@@@core@irr@@QAE@XZ 10092bf0 f i mesh.obj
 0002:0002cc40       ??_E?$irrAllocator@US3DVertex@video@irr@@@core@irr@@UAEPAXI@Z 10092c40 f i mesh.obj
 0002:0002cc40       ??_G?$irrAllocator@US3DVertex@video@irr@@@core@irr@@UAEPAXI@Z 10092c40 f i mesh.obj
 0002:0002ccb0       ??0?$irrAllocator@G@core@irr@@QAE@XZ 10092cb0 f i mesh.obj
 0002:0002cd00       ??_E?$irrAllocator@G@core@irr@@UAEPAXI@Z 10092d00 f i mesh.obj
 0002:0002cd00       ??_G?$irrAllocator@G@core@irr@@UAEPAXI@Z 10092d00 f i mesh.obj
 0002:0002cd70       ??0?$irrAllocator@PAVIMeshBuffer@scene@irr@@@core@irr@@QAE@XZ 10092d70 f i mesh.obj
 0002:0002cdc0       ??_E?$irrAllocator@PAVIMeshBuffer@scene@irr@@@core@irr@@UAEPAXI@Z 10092dc0 f i mesh.obj
 0002:0002cdc0       ??_G?$irrAllocator@PAVIMeshBuffer@scene@irr@@@core@irr@@UAEPAXI@Z 10092dc0 f i mesh.obj
 0002:0002ce30       ??_E?$CMeshBuffer@US3DVertex@video@irr@@@scene@irr@@UAEPAXI@Z 10092e30 f i mesh.obj
 0002:0002ce30       ??_G?$CMeshBuffer@US3DVertex@video@irr@@@scene@irr@@UAEPAXI@Z 10092e30 f i mesh.obj
 0002:0002cec0       ??_E?$CMeshBuffer@US3DVertex2TCoords@video@irr@@@scene@irr@@UAEPAXI@Z 10092ec0 f i mesh.obj
 0002:0002cec0       ??_G?$CMeshBuffer@US3DVertex2TCoords@video@irr@@@scene@irr@@UAEPAXI@Z 10092ec0 f i mesh.obj
 0002:0002cf50       ??_E?$CMeshBuffer@US3DVertexTangents@video@irr@@@scene@irr@@UAEPAXI@Z 10092f50 f i mesh.obj
 0002:0002cf50       ??_G?$CMeshBuffer@US3DVertexTangents@video@irr@@@scene@irr@@UAEPAXI@Z 10092f50 f i mesh.obj
 0002:0002cfe0       ??_D?$CMeshBuffer@US3DVertex@video@irr@@@scene@irr@@QAEXXZ 10092fe0 f i mesh.obj
 0002:0002d050       ??_D?$CMeshBuffer@US3DVertex2TCoords@video@irr@@@scene@irr@@QAEXXZ 10093050 f i mesh.obj
 0002:0002d0c0       ??_D?$CMeshBuffer@US3DVertexTangents@video@irr@@@scene@irr@@QAEXXZ 100930c0 f i mesh.obj
 0002:0002d130       ??1?$CMeshBuffer@US3DVertex@video@irr@@@scene@irr@@UAE@XZ 10093130 f i mesh.obj
 0002:0002d210       ??1?$CMeshBuffer@US3DVertex2TCoords@video@irr@@@scene@irr@@UAE@XZ 10093210 f i mesh.obj
 0002:0002d2f0       ??1?$CMeshBuffer@US3DVertexTangents@video@irr@@@scene@irr@@UAE@XZ 100932f0 f i mesh.obj
 0002:0002d3d0       ?reallocate@?$array@US3DVertexTangents@video@irr@@V?$irrAllocator@US3DVertexTangents@video@irr@@@core@3@@core@irr@@QAEXI@Z 100933d0 f i mesh.obj
 0002:0002d540       ?deallocate@?$irrAllocator@US3DVertexTangents@video@irr@@@core@irr@@QAEXPAUS3DVertexTangents@video@3@@Z 10093540 f i mesh.obj
 0002:0002d5b0       ?construct@?$irrAllocator@US3DVertexTangents@video@irr@@@core@irr@@QAEXPAUS3DVertexTangents@video@3@ABU453@@Z 100935b0 f i mesh.obj
 0002:0002d6a0       ??3@YAXPAX0@Z              100936a0 f i mesh.obj
 0002:0002d6d0       ?destruct@?$irrAllocator@US3DVertexTangents@video@irr@@@core@irr@@QAEXPAUS3DVertexTangents@video@3@@Z 100936d0 f i mesh.obj
 0002:0002d710       ?reallocate@?$array@US3DVertex2TCoords@video@irr@@V?$irrAllocator@US3DVertex2TCoords@video@irr@@@core@3@@core@irr@@QAEXI@Z 10093710 f i mesh.obj
 0002:0002d880       ?deallocate@?$irrAllocator@US3DVertex2TCoords@video@irr@@@core@irr@@QAEXPAUS3DVertex2TCoords@video@3@@Z 10093880 f i mesh.obj
 0002:0002d8f0       ?construct@?$irrAllocator@US3DVertex2TCoords@video@irr@@@core@irr@@QAEXPAUS3DVertex2TCoords@video@3@ABU453@@Z 100938f0 f i mesh.obj
 0002:0002d9e0       ?destruct@?$irrAllocator@US3DVertex2TCoords@video@irr@@@core@irr@@QAEXPAUS3DVertex2TCoords@video@3@@Z 100939e0 f i mesh.obj
 0002:0002da20       ?reallocate@?$array@US3DVertex@video@irr@@V?$irrAllocator@US3DVertex@video@irr@@@core@3@@core@irr@@QAEXI@Z 10093a20 f i mesh.obj
 0002:0002db90       ?deallocate@?$irrAllocator@US3DVertex@video@irr@@@core@irr@@QAEXPAUS3DVertex@video@3@@Z 10093b90 f i mesh.obj
 0002:0002dc00       ?construct@?$irrAllocator@US3DVertex@video@irr@@@core@irr@@QAEXPAUS3DVertex@video@3@ABU453@@Z 10093c00 f i mesh.obj
 0002:0002dcf0       ?destruct@?$irrAllocator@US3DVertex@video@irr@@@core@irr@@QAEXPAUS3DVertex@video@3@@Z 10093cf0 f i mesh.obj
 0002:0002dd30       ?reallocate@?$array@GV?$irrAllocator@G@core@irr@@@core@irr@@QAEXI@Z 10093d30 f i mesh.obj
 0002:0002dea0       ?deallocate@?$irrAllocator@G@core@irr@@QAEXPAG@Z 10093ea0 f i mesh.obj
 0002:0002df10       ?construct@?$irrAllocator@G@core@irr@@QAEXPAGABG@Z 10093f10 f i mesh.obj
 0002:0002dfb0       ?destruct@?$irrAllocator@G@core@irr@@QAEXPAG@Z 10093fb0 f i mesh.obj
 0002:0002dff0       ?reallocate@?$array@PAVIMeshBuffer@scene@irr@@V?$irrAllocator@PAVIMeshBuffer@scene@irr@@@core@3@@core@irr@@QAEXI@Z 10093ff0 f i mesh.obj
 0002:0002e160       ?deallocate@?$irrAllocator@PAVIMeshBuffer@scene@irr@@@core@irr@@QAEXPAPAVIMeshBuffer@scene@3@@Z 10094160 f i mesh.obj
 0002:0002e1d0       ?construct@?$irrAllocator@PAVIMeshBuffer@scene@irr@@@core@irr@@QAEXPAPAVIMeshBuffer@scene@3@ABQAV453@@Z 100941d0 f i mesh.obj
 0002:0002e270       ?destruct@?$irrAllocator@PAVIMeshBuffer@scene@irr@@@core@irr@@QAEXPAPAVIMeshBuffer@scene@3@@Z 10094270 f i mesh.obj
 0002:0002e2b0       ?allocate@?$irrAllocator@US3DVertexTangents@video@irr@@@core@irr@@QAEPAUS3DVertexTangents@video@3@I@Z 100942b0 f i mesh.obj
 0002:0002e320       ?allocate@?$irrAllocator@US3DVertex2TCoords@video@irr@@@core@irr@@QAEPAUS3DVertex2TCoords@video@3@I@Z 10094320 f i mesh.obj
 0002:0002e390       ?allocate@?$irrAllocator@US3DVertex@video@irr@@@core@irr@@QAEPAUS3DVertex@video@3@I@Z 10094390 f i mesh.obj
 0002:0002e400       ?allocate@?$irrAllocator@G@core@irr@@QAEPAGI@Z 10094400 f i mesh.obj
 0002:0002e470       ?allocate@?$irrAllocator@PAVIMeshBuffer@scene@irr@@@core@irr@@QAEPAPAVIMeshBuffer@scene@3@I@Z 10094470 f i mesh.obj
 0002:0002e4e0       ?GetMMForIntPtr@@YAPAVIMeshManipulator@scene@irr@@PAX@Z 100944e0 f   meshmanipulator.obj
 0002:0002e520       _MeshManipulator_CreateMeshWithTangents 10094520 f   meshmanipulator.obj
 0002:0002e5a0       _MeshManipulator_CreateMeshWith2TCoords 100945a0 f   meshmanipulator.obj
 0002:0002e620       _MeshManipulator_TransformMesh 10094620 f   meshmanipulator.obj
 0002:0002e710       _MeshManipulator_CreateMeshUniquePrimitives 10094710 f   meshmanipulator.obj
 0002:0002e790       _MeshManipulator_MakePlanarTextureMapping 10094790 f   meshmanipulator.obj
 0002:0002e820       _MeshManipulator_FlipSurfaces 10094820 f   meshmanipulator.obj
 0002:0002e8a0       _MeshManipulator_RecalculateNormals 100948a0 f   meshmanipulator.obj
 0002:0002e930       _MeshManipulator_ScaleMesh 10094930 f   meshmanipulator.obj
 0002:0002e9e0       _MeshManipulator_SetVertexColorAlpha 100949e0 f   meshmanipulator.obj
 0002:0002ea70       _MeshManipulator_SetVertexColors 10094a70 f   meshmanipulator.obj
 0002:0002eb20       _MeshManipulator_GetPolyCount 10094b20 f   meshmanipulator.obj
 0002:0002eba0       _MeshManipulator_GetPolyCountA 10094ba0 f   meshmanipulator.obj
 0002:0002ec20       ?GetPSSFromIntPtr@@YAPAVIParticleSystemSceneNode@scene@irr@@PAX@Z 10094c20 f   particlescenenode.obj
 0002:0002ec60       _Particle_AddAffector      10094c60 f   particlescenenode.obj
 0002:0002ece0       _Particle_AddAffectorA     10094ce0 f   particlescenenode.obj
 0002:0002edd0       ?SetCallBack@Affector@@QAEXP6GXIPAPAXH@Z@Z 10094dd0 f i particlescenenode.obj
 0002:0002ee20       ??0Affector@@QAE@XZ        10094e20 f i particlescenenode.obj
 0002:0002ef90       ??0IParticleAffector@scene@irr@@QAE@XZ 10094f90 f i particlescenenode.obj
 0002:0002f100       ?setEnabled@IParticleAffector@scene@irr@@UAEX_N@Z 10095100 f i particlescenenode.obj
 0002:0002f150       ?getEnabled@IParticleAffector@scene@irr@@UBE_NXZ 10095150 f i particlescenenode.obj
 0002:0002f190       ?deserializeAttributes@IParticleAffector@scene@irr@@UAEHHPAVIAttributes@io@3@PAUSAttributeReadWriteOptions@53@@Z 10095190 f i particlescenenode.obj
 0002:0002f1d0       ??_GIParticleAffector@scene@irr@@UAEPAXI@Z 100951d0 f i particlescenenode.obj
 0002:0002f1d0       ??_EIParticleAffector@scene@irr@@UAEPAXI@Z 100951d0 f i particlescenenode.obj
 0002:0002f250       ??_DIParticleAffector@scene@irr@@QAEXXZ 10095250 f i particlescenenode.obj
 0002:0002f2c0       ??1IParticleAffector@scene@irr@@UAE@XZ 100952c0 f i particlescenenode.obj
 0002:0002f300       ?affect@Affector@@UAEXIPAUSParticle@scene@irr@@I@Z 10095300 f i particlescenenode.obj
 0002:0002f400       ?getType@Affector@@UBE?AW4E_PARTICLE_AFFECTOR_TYPE@scene@irr@@XZ 10095400 f i particlescenenode.obj
 0002:0002f440       ??_GAffector@@UAEPAXI@Z    10095440 f i particlescenenode.obj
 0002:0002f440       ??_EAffector@@UAEPAXI@Z    10095440 f i particlescenenode.obj
 0002:0002f4c0       ??_DAffector@@QAEXXZ       100954c0 f i particlescenenode.obj
 0002:0002f530       ??1Affector@@UAE@XZ        10095530 f i particlescenenode.obj
 0002:0002f590       _Particle_CreateBoxEmitter 10095590 f   particlescenenode.obj
 0002:0002f720       _Particle_CreateFadeOutParticleAffector 10095720 f   particlescenenode.obj
 0002:0002f7e0       _Particle_CreateGravityAffector 100957e0 f   particlescenenode.obj
 0002:0002f8a0       _Particle_CreatePointEmitter 100958a0 f   particlescenenode.obj
 0002:0002f9d0       _Particle_RemoveAllAffectors 100959d0 f   particlescenenode.obj
 0002:0002fa50       _Particle_SetEmitter       10095a50 f   particlescenenode.obj
 0002:0002fad0       _Emitter_AddParticle       10095ad0 f   particlescenenode.obj
 0002:0002fb30       ?AddParticles@Emitter@@QAEXPAPAXH@Z 10095b30 f i particlescenenode.obj
 0002:0002fbc0       _Particle_SetEmitterA      10095bc0 f   particlescenenode.obj
 0002:0002fcb0       ?SetCallBack@Emitter@@QAEXP6GXIIPAX@Z@Z 10095cb0 f i particlescenenode.obj
 0002:0002fd00       ??0Emitter@@QAE@XZ         10095d00 f i particlescenenode.obj
 0002:0002fea0       ?deserializeAttributes@IParticleEmitter@scene@irr@@UAEHHPAVIAttributes@io@3@PAUSAttributeReadWriteOptions@53@@Z 10095ea0 f i particlescenenode.obj
 0002:0002fee0       ?emitt@Emitter@@UAEHIIAAPAUSParticle@scene@irr@@@Z 10095ee0 f i particlescenenode.obj
 0002:0002ff90       ?setDirection@Emitter@@UAEXABV?$vector3d@M@core@irr@@@Z 10095f90 f i particlescenenode.obj
 0002:0002fff0       ?setMinParticlesPerSecond@Emitter@@UAEXI@Z 10095ff0 f i particlescenenode.obj
 0002:00030040       ?setMaxParticlesPerSecond@Emitter@@UAEXI@Z 10096040 f i particlescenenode.obj
 0002:00030090       ?getDirection@Emitter@@UBEABV?$vector3d@M@core@irr@@XZ 10096090 f i particlescenenode.obj
 0002:000300d0       ?getMinParticlesPerSecond@Emitter@@UBEIXZ 100960d0 f i particlescenenode.obj
 0002:00030110       ?getMaxParticlesPerSecond@Emitter@@UBEIXZ 10096110 f i particlescenenode.obj
 0002:00030150       ?getMinStartColor@Emitter@@UBEABVSColor@video@irr@@XZ 10096150 f i particlescenenode.obj
 0002:00030190       ?getMaxStartColor@Emitter@@UBEABVSColor@video@irr@@XZ 10096190 f i particlescenenode.obj
 0002:000301d0       ?setMaxStartColor@Emitter@@UAEXABVSColor@video@irr@@@Z 100961d0 f i particlescenenode.obj
 0002:00030220       ?setMinStartColor@Emitter@@UAEXABVSColor@video@irr@@@Z 10096220 f i particlescenenode.obj
 0002:00030270       ?getType@Emitter@@UBE?AW4E_PARTICLE_EMITTER_TYPE@scene@irr@@XZ 10096270 f i particlescenenode.obj
 0002:000302b0       ??_GEmitter@@UAEPAXI@Z     100962b0 f i particlescenenode.obj
 0002:000302b0       ??_EEmitter@@UAEPAXI@Z     100962b0 f i particlescenenode.obj
 0002:00030330       ??0IParticleEmitter@scene@irr@@QAE@XZ 10096330 f i particlescenenode.obj
 0002:00030470       ?serializeAttributes@IParticleEmitter@scene@irr@@UBEXPAVIAttributes@io@3@PAUSAttributeReadWriteOptions@53@@Z 10096470 f i particlescenenode.obj
 0002:000304b0       ?getType@IParticleEmitter@scene@irr@@UBE?AW4E_PARTICLE_EMITTER_TYPE@23@XZ 100964b0 f i particlescenenode.obj
 0002:000304f0       ??1IParticleEmitter@scene@irr@@UAE@XZ 100964f0 f i particlescenenode.obj
 0002:00030530       ??_DEmitter@@QAEXXZ        10096530 f i particlescenenode.obj
 0002:000305a0       ??_GIParticleEmitter@scene@irr@@UAEPAXI@Z 100965a0 f i particlescenenode.obj
 0002:000305a0       ??_EIParticleEmitter@scene@irr@@UAEPAXI@Z 100965a0 f i particlescenenode.obj
 0002:00030620       ??1Emitter@@UAE@XZ         10096620 f i particlescenenode.obj
 0002:000306d0       ??_DIParticleEmitter@scene@irr@@QAEXXZ 100966d0 f i particlescenenode.obj
 0002:00030740       _Particle_SetParticlesAreGlobal 10096740 f   particlescenenode.obj
 0002:000307c0       _Particle_SetParticleSize  100967c0 f   particlescenenode.obj
 0002:00030860       _SParticle_Create          10096860 f   particlescenenode.obj
 0002:00030900       ??0SParticle@scene@irr@@QAE@XZ 10096900 f i particlescenenode.obj
 0002:00030990       _SParticle_GetPos          10096990 f   particlescenenode.obj
 0002:00030a00       _SParticle_SetPos          10096a00 f   particlescenenode.obj
 0002:00030a90       _SParticle_GetVect         10096a90 f   particlescenenode.obj
 0002:00030b00       _SParticle_SetVect         10096b00 f   particlescenenode.obj
 0002:00030b90       _SParticle_GetStartVect    10096b90 f   particlescenenode.obj
 0002:00030c00       _SParticle_SetStartVect    10096c00 f   particlescenenode.obj
 0002:00030c90       _SParticle_GetColor        10096c90 f   particlescenenode.obj
 0002:00030cf0       _SParticle_SetColor        10096cf0 f   particlescenenode.obj
 0002:00030d70       _SParticle_GetStartColor   10096d70 f   particlescenenode.obj
 0002:00030dd0       _SParticle_SetStartColor   10096dd0 f   particlescenenode.obj
 0002:00030e50       _SParticle_GetStartTime    10096e50 f   particlescenenode.obj
 0002:00030e90       _SParticle_SetStartTime    10096e90 f   particlescenenode.obj
 0002:00030ee0       _SParticle_GetEndTime      10096ee0 f   particlescenenode.obj
 0002:00030f20       _SParticle_SetEndTime      10096f20 f   particlescenenode.obj
 0002:00030f70       ??0?$array@USParticle@scene@irr@@V?$irrAllocator@USParticle@scene@irr@@@core@3@@core@irr@@QAE@XZ 10096f70 f i particlescenenode.obj
 0002:00031000       ??1?$array@USParticle@scene@irr@@V?$irrAllocator@USParticle@scene@irr@@@core@3@@core@irr@@QAE@XZ 10097000 f i particlescenenode.obj
 0002:00031100       ?push_back@?$array@USParticle@scene@irr@@V?$irrAllocator@USParticle@scene@irr@@@core@3@@core@irr@@QAEXABUSParticle@scene@3@@Z 10097100 f i particlescenenode.obj
 0002:00031260       ?clear@?$array@USParticle@scene@irr@@V?$irrAllocator@USParticle@scene@irr@@@core@3@@core@irr@@QAEXXZ 10097260 f i particlescenenode.obj
 0002:00031330       ?pointer@?$array@USParticle@scene@irr@@V?$irrAllocator@USParticle@scene@irr@@@core@3@@core@irr@@QAEPAUSParticle@scene@3@XZ 10097330 f i particlescenenode.obj
 0002:00031370       ?size@?$array@USParticle@scene@irr@@V?$irrAllocator@USParticle@scene@irr@@@core@3@@core@irr@@QBEIXZ 10097370 f i particlescenenode.obj
 0002:000313b0       ??1?$irrAllocator@USParticle@scene@irr@@@core@irr@@UAE@XZ 100973b0 f i particlescenenode.obj
 0002:000313f0       ?internal_new@?$irrAllocator@USParticle@scene@irr@@@core@irr@@MAEPAXI@Z 100973f0 f i particlescenenode.obj
 0002:00031450       ?internal_delete@?$irrAllocator@USParticle@scene@irr@@@core@irr@@MAEXPAX@Z 10097450 f i particlescenenode.obj
 0002:000314b0       ??0?$irrAllocator@USParticle@scene@irr@@@core@irr@@QAE@XZ 100974b0 f i particlescenenode.obj
 0002:00031500       ??0SParticle@scene@irr@@QAE@ABU012@@Z 10097500 f i particlescenenode.obj
 0002:000315d0       ??_E?$irrAllocator@USParticle@scene@irr@@@core@irr@@UAEPAXI@Z 100975d0 f i particlescenenode.obj
 0002:000315d0       ??_G?$irrAllocator@USParticle@scene@irr@@@core@irr@@UAEPAXI@Z 100975d0 f i particlescenenode.obj
 0002:00031640       ?reallocate@?$array@USParticle@scene@irr@@V?$irrAllocator@USParticle@scene@irr@@@core@3@@core@irr@@QAEXI@Z 10097640 f i particlescenenode.obj
 0002:000317b0       ?deallocate@?$irrAllocator@USParticle@scene@irr@@@core@irr@@QAEXPAUSParticle@scene@3@@Z 100977b0 f i particlescenenode.obj
 0002:00031820       ?construct@?$irrAllocator@USParticle@scene@irr@@@core@irr@@QAEXPAUSParticle@scene@3@ABU453@@Z 10097820 f i particlescenenode.obj
 0002:00031910       ?destruct@?$irrAllocator@USParticle@scene@irr@@@core@irr@@QAEXPAUSParticle@scene@3@@Z 10097910 f i particlescenenode.obj
 0002:00031950       ?allocate@?$irrAllocator@USParticle@scene@irr@@@core@irr@@QAEPAUSParticle@scene@3@I@Z 10097950 f i particlescenenode.obj
 0002:000319c0       ?serializeAttributes@IParticleEmitter@scene@irr@@WDE@BEXPAVIAttributes@io@3@PAUSAttributeReadWriteOptions@53@@Z 100979c0 f i particlescenenode.obj
 0002:000319d0       ?serializeAttributes@IParticleAffector@scene@irr@@$4PPPPPPPM@A@BEXPAVIAttributes@io@3@PAUSAttributeReadWriteOptions@53@@Z 100979d0 f i particlescenenode.obj
 0002:000319e0       ?serializeAttributes@IParticleAffector@scene@irr@@UBEXPAVIAttributes@io@3@PAUSAttributeReadWriteOptions@53@@Z 100979e0 f i particlescenenode.obj
 0002:00031a20       ?serializeAttributes@IParticleAffector@scene@irr@@$4PPPPPPPM@3BEXPAVIAttributes@io@3@PAUSAttributeReadWriteOptions@53@@Z 10097a20 f i particlescenenode.obj
 0002:00031a30       ?GetSceneFromIntPtr@@YAPAVISceneManager@scene@irr@@PAX@Z 10097a30 f   scenemanager.obj
 0002:00031a70       _SceneManager_AddAnimatedMeshSceneNode 10097a70 f   scenemanager.obj
 0002:00031b70       _SceneManager_AddBillboardSceneNode 10097b70 f   scenemanager.obj
 0002:00031c50       _SceneManager_AddCameraSceneNode 10097c50 f   scenemanager.obj
 0002:00031d20       _SceneManager_AddCameraSceneNodeFPS 10097d20 f   scenemanager.obj
 0002:00031dd0       _SceneManager_AddCameraSceneNodeFPSA 10097dd0 f   scenemanager.obj
 0002:00031f00       _SceneManager_AddCameraSceneNodeMaya 10097f00 f   scenemanager.obj
 0002:00031fa0       _SceneManager_AddDummyTransformationSceneNode 10097fa0 f   scenemanager.obj
 0002:00032030       _SceneManager_AddEmptySceneNode 10098030 f   scenemanager.obj
 0002:000320c0       _SceneManager_AddHillPlaneMesh 100980c0 f   scenemanager.obj
 0002:000321e0       _SceneManager_AddLightSceneNode 100981e0 f   scenemanager.obj
 0002:00032300       ??0SColorf@video@irr@@QAE@MMMM@Z 10098300 f i scenemanager.obj
 0002:00032370       _SceneManager_AddMeshSceneNode 10098370 f   scenemanager.obj
 0002:00032470       _SceneManager_AddOctTreeSceneNode 10098470 f   scenemanager.obj
 0002:00032500       _SceneManager_AddOctTreeSceneNodeA 10098500 f   scenemanager.obj
 0002:00032590       _SceneManager_AddParticleSystemSceneNode 10098590 f   scenemanager.obj
 0002:00032690       _SceneManager_AddSkyBoxSceneNode 10098690 f   scenemanager.obj
 0002:00032730       _SceneManager_AddTerrainMesh 10098730 f   scenemanager.obj
 0002:00032800       _SceneManager_AddTerrainSceneNode 10098800 f   scenemanager.obj
 0002:00032970       _SceneManager_AddCubeSceneNode 10098970 f   scenemanager.obj
 0002:00032a70       _SceneManager_AddSkyDomeSceneNode 10098a70 f   scenemanager.obj
 0002:00032b20       _SceneManager_AddSphereSceneNode 10098b20 f   scenemanager.obj
 0002:00032c20       _SceneManager_AddTextSceneNode 10098c20 f   scenemanager.obj
 0002:00032d10       _SceneManager_AddTextSceneNode2 10098d10 f   scenemanager.obj
 0002:00032ee0       _SceneManager_AddWaterSurfaceSceneNode 10098ee0 f   scenemanager.obj
 0002:00033000       _SceneManager_AddToDeletionQueue 10099000 f   scenemanager.obj
 0002:00033080       _SceneManager_Clear        10099080 f   scenemanager.obj
 0002:00033100       _SceneManager_GetGUIEnv    10099100 f   scenemanager.obj
 0002:00033180       _SceneManager_CreateCollisionResponseAnimator 10099180 f   scenemanager.obj
 0002:000332b0       _SceneManager_CreateDeleteAnimator 100992b0 f   scenemanager.obj
 0002:00033330       _SceneManager_RegisterNodeForRendering 10099330 f   scenemanager.obj
 0002:000333c0       _SceneManager_CreateFlyCircleAnimator 100993c0 f   scenemanager.obj
 0002:000334b0       _SceneManager_CreateFlyStraightAnimator 100994b0 f   scenemanager.obj
 0002:000335a0       _SceneManager_CreateMetaTriangleSelector 100995a0 f   scenemanager.obj
 0002:00033620       _SceneManager_CreateOctTreeTriangleSelector 10099620 f   scenemanager.obj
 0002:000336b0       _SceneManager_CreateRotationAnimator 100996b0 f   scenemanager.obj
 0002:00033760       _SceneManager_CreateTriangleSelector 10099760 f   scenemanager.obj
 0002:000337f0       _SceneManager_CreateTerrainTriangleSelector 100997f0 f   scenemanager.obj
 0002:00033880       _SceneManager_CreateTriangleSelectorFromBoundingBox 10099880 f   scenemanager.obj
 0002:00033900       _SceneManager_CreateFollowSplineAnimator 10099900 f   scenemanager.obj
 0002:00033a60       _SceneManager_CreateTextureAnimator 10099a60 f   scenemanager.obj
 0002:00033ba0       _SceneManager_DrawAll      10099ba0 f   scenemanager.obj
 0002:00033c20       _SceneManager_GetActiveCamera 10099c20 f   scenemanager.obj
 0002:00033ca0       _SceneManager_GetMesh      10099ca0 f   scenemanager.obj
 0002:00033d20       _SceneManager_GetMeshManipulator 10099d20 f   scenemanager.obj
 0002:00033da0       _SceneManager_GetSceneCollisionManager 10099da0 f   scenemanager.obj
 0002:00033e20       _SceneManager_GetRootSceneNode 10099e20 f   scenemanager.obj
 0002:00033ea0       _SceneManager_GetSceneNodeFromID 10099ea0 f   scenemanager.obj
 0002:00033f20       _SceneManager_GetSceneNodeFromName 10099f20 f   scenemanager.obj
 0002:00033fb0       _SceneManager_GetSceneNodeRenderPass 10099fb0 f   scenemanager.obj
 0002:00034030       _SceneManager_GetShadowColor 1009a030 f   scenemanager.obj
 0002:000340d0       _SceneManager_GetVideoDriver 1009a0d0 f   scenemanager.obj
 0002:00034150       _SceneManager_SetActiveCamera 1009a150 f   scenemanager.obj
 0002:000341d0       ?SceneManager_SetAmbientLight@@YAXPAXPAM@Z 1009a1d0 f   scenemanager.obj
 0002:00034290       _SceneManager_SetShadowColor 1009a290 f   scenemanager.obj
 0002:00034340       _SceneManager_SaveScene    1009a340 f   scenemanager.obj
 0002:000343d0       _SceneManager_LoadScene    1009a3d0 f   scenemanager.obj
 0002:00034460       _SceneManager_GetMeshCache 1009a460 f   scenemanager.obj
 0002:000344e0       _SceneCollisionManager_GetCollisionPoint 1009a4e0 f   scenemanager.obj
 0002:00034660       _SceneCollisionManager_GetCollisionResultPoint 1009a660 f   scenemanager.obj
 0002:00034800       _SceneCollisionManager_GetRayFromScreenCoordinates 1009a800 f   scenemanager.obj
 0002:00034890       _SceneCollisionManager_GetSceneNodeFromCameraBB 1009a890 f   scenemanager.obj
 0002:00034900       _SceneCollisionManager_GetSceneNodeFromRayBB 1009a900 f   scenemanager.obj
 0002:000349b0       _SceneCollisionManager_GetSceneNodeFromScreenCoordinatesBB 1009a9b0 f   scenemanager.obj
 0002:00034a30       _SceneCollisionManager_GetScreenCoordinatesFrom3DPosition 1009aa30 f   scenemanager.obj
 0002:00034ad0       _MetaTriangleSelector_AddTriangleSelector 1009aad0 f   scenemanager.obj
 0002:00034b30       _MetaTriangleSelector_RemoveAllTriangleSelectors 1009ab30 f   scenemanager.obj
 0002:00034b90       _MetaTriangleSelector_RemoveTriangleSelector 1009ab90 f   scenemanager.obj
 0002:00034bf0       _SceneManager_CreateNewSceneManager 1009abf0 f   scenemanager.obj
 0002:00034c70       _SceneManager_PostEventFromUser 1009ac70 f   scenemanager.obj
 0002:00034d00       _SceneManager_GetSceneNodeFromType 1009ad00 f   scenemanager.obj
 0002:00034d90       ??0?$array@PAVITexture@video@irr@@V?$irrAllocator@PAVITexture@video@irr@@@core@3@@core@irr@@QAE@XZ 1009ad90 f i scenemanager.obj
 0002:00034e20       ??1?$array@PAVITexture@video@irr@@V?$irrAllocator@PAVITexture@video@irr@@@core@3@@core@irr@@QAE@XZ 1009ae20 f i scenemanager.obj
 0002:00034f20       ?push_back@?$array@PAVITexture@video@irr@@V?$irrAllocator@PAVITexture@video@irr@@@core@3@@core@irr@@QAEXABQAVITexture@video@3@@Z 1009af20 f i scenemanager.obj
 0002:00035070       ??1?$irrAllocator@PAVITexture@video@irr@@@core@irr@@UAE@XZ 1009b070 f i scenemanager.obj
 0002:000350b0       ?internal_new@?$irrAllocator@PAVITexture@video@irr@@@core@irr@@MAEPAXI@Z 1009b0b0 f i scenemanager.obj
 0002:00035110       ?internal_delete@?$irrAllocator@PAVITexture@video@irr@@@core@irr@@MAEXPAX@Z 1009b110 f i scenemanager.obj
 0002:00035170       ??0?$dimension2d@I@core@irr@@QAE@ABI0@Z 1009b170 f i scenemanager.obj
 0002:000351d0       ??0?$array@V?$vector3d@M@core@irr@@V?$irrAllocator@V?$vector3d@M@core@irr@@@23@@core@irr@@QAE@XZ 1009b1d0 f i scenemanager.obj
 0002:00035260       ??1?$array@V?$vector3d@M@core@irr@@V?$irrAllocator@V?$vector3d@M@core@irr@@@23@@core@irr@@QAE@XZ 1009b260 f i scenemanager.obj
 0002:00035360       ?push_back@?$array@V?$vector3d@M@core@irr@@V?$irrAllocator@V?$vector3d@M@core@irr@@@23@@core@irr@@QAEXABV?$vector3d@M@23@@Z 1009b360 f i scenemanager.obj
 0002:000354c0       ??1?$irrAllocator@V?$vector3d@M@core@irr@@@core@irr@@UAE@XZ 1009b4c0 f i scenemanager.obj
 0002:00035500       ?internal_new@?$irrAllocator@V?$vector3d@M@core@irr@@@core@irr@@MAEPAXI@Z 1009b500 f i scenemanager.obj
 0002:00035560       ?internal_delete@?$irrAllocator@V?$vector3d@M@core@irr@@@core@irr@@MAEXPAX@Z 1009b560 f i scenemanager.obj
 0002:000355c0       ??0?$line3d@M@core@irr@@QAE@MMMMMM@Z 1009b5c0 f i scenemanager.obj
 0002:00035660       ??0?$irrAllocator@PAVITexture@video@irr@@@core@irr@@QAE@XZ 1009b660 f i scenemanager.obj
 0002:000356b0       ??_G?$irrAllocator@PAVITexture@video@irr@@@core@irr@@UAEPAXI@Z 1009b6b0 f i scenemanager.obj
 0002:000356b0       ??_E?$irrAllocator@PAVITexture@video@irr@@@core@irr@@UAEPAXI@Z 1009b6b0 f i scenemanager.obj
 0002:00035720       ??0?$irrAllocator@V?$vector3d@M@core@irr@@@core@irr@@QAE@XZ 1009b720 f i scenemanager.obj
 0002:00035770       ??_E?$irrAllocator@V?$vector3d@M@core@irr@@@core@irr@@UAEPAXI@Z 1009b770 f i scenemanager.obj
 0002:00035770       ??_G?$irrAllocator@V?$vector3d@M@core@irr@@@core@irr@@UAEPAXI@Z 1009b770 f i scenemanager.obj
 0002:000357e0       ?reallocate@?$array@PAVITexture@video@irr@@V?$irrAllocator@PAVITexture@video@irr@@@core@3@@core@irr@@QAEXI@Z 1009b7e0 f i scenemanager.obj
 0002:00035950       ?deallocate@?$irrAllocator@PAVITexture@video@irr@@@core@irr@@QAEXPAPAVITexture@video@3@@Z 1009b950 f i scenemanager.obj
 0002:000359c0       ?construct@?$irrAllocator@PAVITexture@video@irr@@@core@irr@@QAEXPAPAVITexture@video@3@ABQAV453@@Z 1009b9c0 f i scenemanager.obj
 0002:00035a60       ?destruct@?$irrAllocator@PAVITexture@video@irr@@@core@irr@@QAEXPAPAVITexture@video@3@@Z 1009ba60 f i scenemanager.obj
 0002:00035aa0       ?reallocate@?$array@V?$vector3d@M@core@irr@@V?$irrAllocator@V?$vector3d@M@core@irr@@@23@@core@irr@@QAEXI@Z 1009baa0 f i scenemanager.obj
 0002:00035c10       ?deallocate@?$irrAllocator@V?$vector3d@M@core@irr@@@core@irr@@QAEXPAV?$vector3d@M@23@@Z 1009bc10 f i scenemanager.obj
 0002:00035c80       ?construct@?$irrAllocator@V?$vector3d@M@core@irr@@@core@irr@@QAEXPAV?$vector3d@M@23@ABV423@@Z 1009bc80 f i scenemanager.obj
 0002:00035d70       ?destruct@?$irrAllocator@V?$vector3d@M@core@irr@@@core@irr@@QAEXPAV?$vector3d@M@23@@Z 1009bd70 f i scenemanager.obj
 0002:00035db0       ?allocate@?$irrAllocator@PAVITexture@video@irr@@@core@irr@@QAEPAPAVITexture@video@3@I@Z 1009bdb0 f i scenemanager.obj
 0002:00035e20       ?allocate@?$irrAllocator@V?$vector3d@M@core@irr@@@core@irr@@QAEPAV?$vector3d@M@23@I@Z 1009be20 f i scenemanager.obj
 0002:00035e90       ?GetSceneNodeFromIntPtr@@YAPAVISceneNode@scene@irr@@PAX@Z 1009be90 f   scenenode.obj
 0002:00035ed0       _SceneNode_AddAnimator     1009bed0 f   scenenode.obj
 0002:00035f50       _SceneNode_AddChild        1009bf50 f   scenenode.obj
 0002:00035fe0       _SceneNode_GetAbsolutePosition 1009bfe0 f   scenenode.obj
 0002:00036070       _SceneNode_GetAbsoluteTransformation 1009c070 f   scenenode.obj
 0002:000360f0       _SceneNode_GetAutomaticCulling 1009c0f0 f   scenenode.obj
 0002:00036150       ?getAutomaticCulling@ISceneNode@scene@irr@@QBE?AW4E_CULLING_TYPE@23@XZ 1009c150 f i scenenode.obj
 0002:00036190       _SceneNode_GetBoundingBox  1009c190 f   scenenode.obj
 0002:00036230       _SceneNode_GetChildren     1009c230 f   scenenode.obj
 0002:00036340       ?getChildren@ISceneNode@scene@irr@@QBEABV?$list@PAVISceneNode@scene@irr@@@core@3@XZ 1009c340 f i scenenode.obj
 0002:00036380       _SceneNode_GetChildrenCount 1009c380 f   scenenode.obj
 0002:000363e0       _SceneNode_GetID           1009c3e0 f   scenenode.obj
 0002:00036460       _SceneNode_GetMaterialCount 1009c460 f   scenenode.obj
 0002:000364e0       _SceneNode_GetMaterial     1009c4e0 f   scenenode.obj
 0002:00036560       _SceneNode_GetName         1009c560 f   scenenode.obj
 0002:000365f0       _SceneNode_GetParent       1009c5f0 f   scenenode.obj
 0002:00036650       _SceneNode_GetPosition     1009c650 f   scenenode.obj
 0002:000366e0       _SceneNode_GetRelativeTransformation 1009c6e0 f   scenenode.obj
 0002:00036790       _SceneNode_GetRotation     1009c790 f   scenenode.obj
 0002:00036830       _SceneNode_GetScale        1009c830 f   scenenode.obj
 0002:000368c0       _SceneNode_GetTransformedBoundingBox 1009c8c0 f   scenenode.obj
 0002:00036950       _SceneNode_GetTriangleSelector 1009c950 f   scenenode.obj
 0002:000369d0       _SceneNode_GetType         1009c9d0 f   scenenode.obj
 0002:00036a50       _SceneNode_GetDebugDataVisible 1009ca50 f   scenenode.obj
 0002:00036ab0       ?isDebugDataVisible@ISceneNode@scene@irr@@QBE?AW4E_DEBUG_SCENE_TYPE@23@XZ 1009cab0 f i scenenode.obj
 0002:00036af0       _SceneNode_IsDebugObject   1009caf0 f   scenenode.obj
 0002:00036b60       ?isDebugObject@ISceneNode@scene@irr@@QBE_NXZ 1009cb60 f i scenenode.obj
 0002:00036ba0       _SceneNode_IsVisible       1009cba0 f   scenenode.obj
 0002:00036c30       _SceneNode_OnAnimate       1009cc30 f   scenenode.obj
 0002:00036cb0       _SceneNode_OnRegisterSceneNode 1009ccb0 f   scenenode.obj
 0002:00036d30       _SceneNode_Remove          1009cd30 f   scenenode.obj
 0002:00036db0       _SceneNode_RemoveAll       1009cdb0 f   scenenode.obj
 0002:00036e30       _SceneNode_RemoveAnimator  1009ce30 f   scenenode.obj
 0002:00036eb0       _SceneNode_RemoveAnimators 1009ceb0 f   scenenode.obj
 0002:00036f30       _SceneNode_RemoveChild     1009cf30 f   scenenode.obj
 0002:00036fd0       _SceneNode_Render          1009cfd0 f   scenenode.obj
 0002:00037050       _SceneNode_SetAutomaticCulling 1009d050 f   scenenode.obj
 0002:000370b0       ?setAutomaticCulling@ISceneNode@scene@irr@@QAEXW4E_CULLING_TYPE@23@@Z 1009d0b0 f i scenenode.obj
 0002:00037100       _SceneNode_SetDebugDataVisible 1009d100 f   scenenode.obj
 0002:00037190       _SceneNode_SetID           1009d190 f   scenenode.obj
 0002:00037210       _SceneNode_SetIsDebugObject 1009d210 f   scenenode.obj
 0002:00037270       ?setIsDebugObject@ISceneNode@scene@irr@@QAEX_N@Z 1009d270 f i scenenode.obj
 0002:000372c0       _SceneNode_SetMaterialFlag 1009d2c0 f   scenenode.obj
 0002:00037320       ?setMaterialFlag@ISceneNode@scene@irr@@QAEXW4E_MATERIAL_FLAG@video@3@_N@Z 1009d320 f i scenenode.obj
 0002:000373e0       _SceneNode_SetMaterialTexture 1009d3e0 f   scenenode.obj
 0002:00037440       _SceneNode_SetMaterialType 1009d440 f   scenenode.obj
 0002:000374a0       _SceneNode_SetName         1009d4a0 f   scenenode.obj
 0002:00037520       _SceneNode_SetParent       1009d520 f   scenenode.obj
 0002:000375b0       _SceneNode_SetPosition     1009d5b0 f   scenenode.obj
 0002:00037660       _SceneNode_SetRotation     1009d660 f   scenenode.obj
 0002:00037710       _SceneNode_SetScale        1009d710 f   scenenode.obj
 0002:000377c0       _SceneNode_SetTriangleSelector 1009d7c0 f   scenenode.obj
 0002:00037840       _SceneNode_SetVisible      1009d840 f   scenenode.obj
 0002:000378c0       _SceneNode_UpdateAbsolutePosition 1009d8c0 f   scenenode.obj
 0002:00037940       _BillboardSceneNode_GetSize 1009d940 f   scenenode.obj
 0002:000379c0       _BillboardSceneNode_SetSize 1009d9c0 f   scenenode.obj
 0002:00037a40       _TextSceneNode_SetText     1009da40 f   scenenode.obj
 0002:00037ab0       _TextSceneNode_SetTextColor 1009dab0 f   scenenode.obj
 0002:00037b50       _TerrainSceneNode_GetBoundingBox 1009db50 f   scenenode.obj
 0002:00037be0       _TerrainSceneNode_GetBoundingBoxA 1009dbe0 f   scenenode.obj
 0002:00037c60       _TerrainSceneNode_GetIndexCount 1009dc60 f   scenenode.obj
 0002:00037cc0       _TerrainSceneNode_GetMesh  1009dcc0 f   scenenode.obj
 0002:00037d20       _TerrainSceneNode_GetHeight 1009dd20 f   scenenode.obj
 0002:00037d90       _TerrainSceneNode_GetTerrainCenter 1009dd90 f   scenenode.obj
 0002:00037e10       _TerrainSceneNode_OverrideLODDistance 1009de10 f   scenenode.obj
 0002:00037e80       _TerrainSceneNode_ScaleTexture 1009de80 f   scenenode.obj
 0002:00037ef0       _TerrainSceneNode_SetCameraMovementDelta 1009def0 f   scenenode.obj
 0002:00037f60       _TerrainSceneNode_SetCameraRotationDelta 1009df60 f   scenenode.obj
 0002:00037fd0       _TerrainSceneNode_SetDynamicSelectorUpdate 1009dfd0 f   scenenode.obj
 0002:00038040       _TerrainSceneNode_SetLODOfPatch 1009e040 f   scenenode.obj
 0002:000380b0       _TerrainSceneNode_GetMeshBufferForLOD 1009e0b0 f   scenenode.obj
 0002:00038120       _LightSceneNode_GetLight   1009e120 f   scenenode.obj
 0002:00038300       ??0SLight@video@irr@@QAE@ABU012@@Z 1009e300 f i scenenode.obj
 0002:00038460       _LightSceneNode_SetLight   1009e460 f   scenenode.obj
 0002:00038730       ??4SLight@video@irr@@QAEAAU012@ABU012@@Z 1009e730 f i scenenode.obj
 0002:00038890       _IAnimator_Create          1009e890 f   scenenode.obj
 0002:00038930       ??0ManagedAnimator@@QAE@P6GXPAX0I@Z@Z 1009e930 f i scenenode.obj
 0002:00038a40       ?createClone@ISceneNodeAnimator@scene@irr@@UAEPAV123@PAVISceneNode@23@PAVISceneManager@23@@Z 1009ea40 f i scenenode.obj
 0002:00038a80       ?getType@ISceneNodeAnimator@scene@irr@@UBE?AW4ESCENE_NODE_ANIMATOR_TYPE@23@XZ 1009ea80 f i scenenode.obj
 0002:00038ac0       ?animateNode@ManagedAnimator@@UAEXPAVISceneNode@scene@irr@@I@Z 1009eac0 f i scenenode.obj
 0002:00038b30       ??_EManagedAnimator@@UAEPAXI@Z 1009eb30 f i scenenode.obj
 0002:00038b30       ??_GManagedAnimator@@UAEPAXI@Z 1009eb30 f i scenenode.obj
 0002:00038bb0       ??0ISceneNodeAnimator@scene@irr@@QAE@XZ 1009ebb0 f i scenenode.obj
 0002:00038cc0       ??_GISceneNodeAnimator@scene@irr@@UAEPAXI@Z 1009ecc0 f i scenenode.obj
 0002:00038cc0       ??_EISceneNodeAnimator@scene@irr@@UAEPAXI@Z 1009ecc0 f i scenenode.obj
 0002:00038d40       ??_DISceneNodeAnimator@scene@irr@@QAEXXZ 1009ed40 f i scenenode.obj
 0002:00038da0       ??1ISceneNodeAnimator@scene@irr@@UAE@XZ 1009eda0 f i scenenode.obj
 0002:00038e20       ??_DManagedAnimator@@QAEXXZ 1009ee20 f i scenenode.obj
 0002:00038e80       ??1ManagedAnimator@@UAE@XZ 1009ee80 f i scenenode.obj
 0002:00038ee0       ?getSize@?$list@PAVISceneNode@scene@irr@@@core@irr@@QBEIXZ 1009eee0 f i scenenode.obj
 0002:00038f20       ?begin@?$list@PAVISceneNode@scene@irr@@@core@irr@@QBE?AVConstIterator@123@XZ 1009ef20 f i scenenode.obj
 0002:00038f80       ?end@?$list@PAVISceneNode@scene@irr@@@core@irr@@QBE?AVConstIterator@123@XZ 1009ef80 f i scenenode.obj
 0002:00038fe0       ??EConstIterator@?$list@PAVISceneNode@scene@irr@@@core@irr@@QAEAAV0123@XZ 1009efe0 f i scenenode.obj
 0002:00039030       ??9ConstIterator@?$list@PAVISceneNode@scene@irr@@@core@irr@@QBE_NABV0123@@Z 1009f030 f i scenenode.obj
 0002:00039080       ??DConstIterator@?$list@PAVISceneNode@scene@irr@@@core@irr@@QAEABQAVISceneNode@scene@3@XZ 1009f080 f i scenenode.obj
 0002:000390c0       ??0ConstIterator@?$list@PAVISceneNode@scene@irr@@@core@irr@@AAE@PAUSKListNode@123@@Z 1009f0c0 f i scenenode.obj
 0002:00039110       ?GetBoneFromIntPtr@@YAPAVIBoneSceneNode@scene@irr@@PAX@Z 1009f110 f   skinnedmesh.obj
 0002:00039150       _BoneSceneNode_GetAnimationMode 1009f150 f   skinnedmesh.obj
 0002:000391d0       _BoneSceneNode_GetBoneIndex 1009f1d0 f   skinnedmesh.obj
 0002:00039250       _BoneSceneNode_GetBoneName 1009f250 f   skinnedmesh.obj
 0002:000392e0       _BoneSceneNode_SetAnimationMode 1009f2e0 f   skinnedmesh.obj
 0002:00039360       _BoneSceneNode_GetSkinningSpace 1009f360 f   skinnedmesh.obj
 0002:000393e0       _BoneSceneNode_SetSkinningSpace 1009f3e0 f   skinnedmesh.obj
 0002:00039460       _BoneSceneNode_GetScaleHint 1009f460 f   skinnedmesh.obj
 0002:000394c0       _BoneSceneNode_GetRotationHint 1009f4c0 f   skinnedmesh.obj
 0002:00039520       _BoneSceneNode_GetPositionHint 1009f520 f   skinnedmesh.obj
 0002:00039580       _BoneSceneNode_SetScaleHint 1009f580 f   skinnedmesh.obj
 0002:000395e0       _BoneSceneNode_SetRotationHint 1009f5e0 f   skinnedmesh.obj
 0002:00039640       _BoneSceneNode_SetPositionHint 1009f640 f   skinnedmesh.obj
 0002:000396a0       _BoneSceneNode_UAPOAC      1009f6a0 f   skinnedmesh.obj
 0002:00039720       ?GetMeshFromIntPtr@@YAPAVISkinnedMesh@scene@irr@@PAX@Z 1009f720 f   skinnedmesh.obj
 0002:00039760       _SkinnedMesh_AnimateMesh   1009f760 f   skinnedmesh.obj
 0002:000397f0       _SkinnedMesh_ConvertMeshToTangents 1009f7f0 f   skinnedmesh.obj
 0002:00039870       ?GetTextureFromPtr@@YAPAVITexture@video@irr@@PAX@Z 1009f870 f   texture.obj
 0002:000398b0       _Texture_GetColorFormat    1009f8b0 f   texture.obj
 0002:00039930       _Texture_GetDriverType     1009f930 f   texture.obj
 0002:000399b0       _Texture_GetOriginalSize   1009f9b0 f   texture.obj
 0002:00039a40       _Texture_GetPitch          1009fa40 f   texture.obj
 0002:00039ac0       _Texture_GetName           1009fac0 f   texture.obj
 0002:00039b20       ?getName@ITexture@video@irr@@QBEABV?$string@DV?$irrAllocator@D@core@irr@@@core@3@XZ 1009fb20 f i texture.obj
 0002:00039b60       _Texture_RegenerateMipMapLevels 1009fb60 f   texture.obj
 0002:00039be0       _Texture_Lock              1009fbe0 f   texture.obj
 0002:00039c60       _Texture_UnLock            1009fc60 f   texture.obj
 0002:00039ce0       _LockResult_SetPixel       1009fce0 f   texture.obj
 0002:00039f00       ?A8R8G8B8toA1R5G5B5@video@irr@@YAGI@Z 1009ff00 f i texture.obj
 0002:00039f70       _LockResult_GetPixel       1009ff70 f   texture.obj
 0002:0003a1c0       ?A1R5G5B5toA8R8G8B8@video@irr@@YAIG@Z 100a01c0 f i texture.obj
 0002:0003a270       ?R5G6B5toA8R8G8B8@video@irr@@YAIG@Z 100a0270 f i texture.obj
 0002:0003a2e0       ?set@SColor@video@irr@@QAEXIIII@Z 100a02e0 f i texture.obj
 0002:0003a360       _Vertices_CreateVertex2TCoords 100a0360 f   vertices.obj
 0002:0003a400       _Vertices_CreateVertex     100a0400 f   vertices.obj
 0002:0003a4a0       _Vertices_CreateVertexTangents 100a04a0 f   vertices.obj
 0002:0003a540       _Vertices_GetColor         100a0540 f   vertices.obj
 0002:0003a5a0       _Vertices_GetNormal        100a05a0 f   vertices.obj
 0002:0003a650       _Vertices_GetPos           100a0650 f   vertices.obj
 0002:0003a6c0       _Vertices_GetTCoords       100a06c0 f   vertices.obj
 0002:0003a770       _Vertices_GetTCoords2      100a0770 f   vertices.obj
 0002:0003a820       _Vertices_SetColor         100a0820 f   vertices.obj
 0002:0003a8a0       _Vertices_SetNormal        100a08a0 f   vertices.obj
 0002:0003a930       _Vertices_SetPos           100a0930 f   vertices.obj
 0002:0003a9c0       _Vertices_SetTCoords       100a09c0 f   vertices.obj
 0002:0003aa90       _Vertices_SetTCoords2      100a0a90 f   vertices.obj
 0002:0003ab60       _Vertices_GetType          100a0b60 f   vertices.obj
 0002:0003abb0       _Vertices_GetBinormal      100a0bb0 f   vertices.obj
 0002:0003ac20       _Vertices_SetBinormal      100a0c20 f   vertices.obj
 0002:0003acb0       _Vertices_GetTangent       100a0cb0 f   vertices.obj
 0002:0003ad20       _Vertices_SetTangent       100a0d20 f   vertices.obj
 0002:0003adb0       ??0?$vector2d@M@core@irr@@QAE@MM@Z 100a0db0 f i vertices.obj
 0002:0003ae00       ?GetVideoFromIntPtr@@YAPAVIVideoDriver@video@irr@@PAX@Z 100a0e00 f   videodriver.obj
 0002:0003ae40       _VideoDriver_BeginScene    100a0e40 f   videodriver.obj
 0002:0003af00       _VideoDriver_EndScene      100a0f00 f   videodriver.obj
 0002:0003af80       _VideoDriver_EndSceneA     100a0f80 f   videodriver.obj
 0002:0003b060       _VideoDriver_AddTexture    100a1060 f   videodriver.obj
 0002:0003b100       _VideoDriver_AddTextureFromImage 100a1100 f   videodriver.obj
 0002:0003b190       _VideoDriver_GetGPUProgrammingServices 100a1190 f   videodriver.obj
 0002:0003b210       _VideoDriver_GetTexture    100a1210 f   videodriver.obj
 0002:0003b290       _VideoDriver_GetFPS        100a1290 f   videodriver.obj
 0002:0003b310       _VideoDriver_MakeColorKeyTexture 100a1310 f   videodriver.obj
 0002:0003b3a0       _VideoDriver_MakeColorKeyTextureA 100a13a0 f   videodriver.obj
 0002:0003b450       _VideoDriver_MakeNormalMapTexture 100a1450 f   videodriver.obj
 0002:0003b4e0       _VideoDriver_ClearZBuffer  100a14e0 f   videodriver.obj
 0002:0003b560       _VideoDriver_CreateImageFromFile 100a1560 f   videodriver.obj
 0002:0003b5e0       _VideoDriver_CreateRenderTargetTexture 100a15e0 f   videodriver.obj
 0002:0003b680       _VideoDriver_Draw2DImage   100a1680 f   videodriver.obj
 0002:0003b7c0       _VideoDriver_Draw2DImageA  100a17c0 f   videodriver.obj
 0002:0003b860       _VideoDriver_Draw2DImageB  100a1860 f   videodriver.obj
 0002:0003b970       _VideoDriver_Draw2DImageC  100a1970 f   videodriver.obj
 0002:0003bc00       _VideoDriver_Draw2DImageD  100a1c00 f   videodriver.obj
 0002:0003be60       _VideoDriver_DrawMeshBuffer 100a1e60 f   videodriver.obj
 0002:0003bee0       _VideoDriver_Draw2DLine    100a1ee0 f   videodriver.obj
 0002:0003bfd0       _VideoDriver_Draw2DPolygon 100a1fd0 f   videodriver.obj
 0002:0003c0a0       _VideoDriver_Draw2DRectangle 100a20a0 f   videodriver.obj
 0002:0003c220       _VideoDriver_Draw3DBox     100a2220 f   videodriver.obj
 0002:0003c330       _VideoDriver_Draw3DLine    100a2330 f   videodriver.obj
 0002:0003c450       _VideoDriver_Draw3DTriangle 100a2450 f   videodriver.obj
 0002:0003c520       _VideoDriver_GetScreenSize 100a2520 f   videodriver.obj
 0002:0003c5c0       _VideoDriver_DrawIndexedTriangleList 100a25c0 f   videodriver.obj
 0002:0003c750       _VideoDriver_DrawIndexedTriangleListA 100a2750 f   videodriver.obj
 0002:0003c8e0       _VideoDriver_DrawIndexedTriangleListT 100a28e0 f   videodriver.obj
 0002:0003ca70       ??4S3DVertexTangents@video@irr@@QAEAAU012@ABU012@@Z 100a2a70 f i videodriver.obj
 0002:0003cb00       _VideoDriver_DrawIndexedTriangleFan 100a2b00 f   videodriver.obj
 0002:0003cc90       _VideoDriver_DrawIndexedTriangleFanA 100a2c90 f   videodriver.obj
 0002:0003ce20       _VideoDriver_DrawIndexedTriangleFanT 100a2e20 f   videodriver.obj
 0002:0003cfb0       _VideoDriver_DrawVertexPrimitiveList 100a2fb0 f   videodriver.obj
 0002:0003d5d0       _VideoDriver_GetDriverType 100a35d0 f   videodriver.obj
 0002:0003d650       _VideoDriver_GetTextureCreationFlag 100a3650 f   videodriver.obj
 0002:0003d6e0       _VideoDriver_GetViewPort   100a36e0 f   videodriver.obj
 0002:0003d780       _VideoDriver_QueryFeature  100a3780 f   videodriver.obj
 0002:0003d810       _VideoDriver_RemoveAllTextures 100a3810 f   videodriver.obj
 0002:0003d890       _VideoDriver_RemoveTexture 100a3890 f   videodriver.obj
 0002:0003d910       _VideoDriver_GetTransform  100a3910 f   videodriver.obj
 0002:0003d9b0       _VideoDriver_SetTransform  100a39b0 f   videodriver.obj
 0002:0003da50       _VideoDriver_SetAmbientLight 100a3a50 f   videodriver.obj
 0002:0003db20       ??0SColorf@video@irr@@QAE@VSColor@12@@Z 100a3b20 f i videodriver.obj
 0002:0003dc40       _VideoDriver_SetFog        100a3c40 f   videodriver.obj
 0002:0003dd20       _VideoDriver_SetMaterial   100a3d20 f   videodriver.obj
 0002:0003dda0       _VideoDriver_SetRenderTarget 100a3da0 f   videodriver.obj
 0002:0003de60       _VideoDriver_SetTextureFlag 100a3e60 f   videodriver.obj
 0002:0003def0       _VideoDriver_SetViewPort   100a3ef0 f   videodriver.obj
 0002:0003dfa0       _VideoDriver_DeleteAllDynamicLights 100a3fa0 f   videodriver.obj
 0002:0003e020       _VideoDriver_CreateScreenshot 100a4020 f   videodriver.obj
 0002:0003e0a0       _VideoDriver_WriteImageToFile 100a40a0 f   videodriver.obj
 0002:0003e130       _VideoDriver_GetTextureCount 100a4130 f   videodriver.obj
 0002:0003e1b0       _VideoDriver_GetTextureByIndex 100a41b0 f   videodriver.obj
 0002:0003e230       _VideoDriver_GetPrimitiveCountDrawn 100a4230 f   videodriver.obj
 0002:0003e2ae       ?createDeviceEx@irr@@YAPAVIrrlichtDevice@1@ABUSIrrlichtCreationParameters@1@@Z 100a42ae f   irrlicht:Irrlicht.dll
 0002:0003e2c0       _FT_RoundFix               100a42c0 f   freetype233MT_D:ftbase.obj
 0002:0003e300       _FT_CeilFix                100a4300 f   freetype233MT_D:ftbase.obj
 0002:0003e340       _FT_FloorFix               100a4340 f   freetype233MT_D:ftbase.obj
 0002:0003e380       _FT_Sqrt32                 100a4380 f   freetype233MT_D:ftbase.obj
 0002:0003e3f0       _FT_MulDiv                 100a43f0 f   freetype233MT_D:ftbase.obj
 0002:0003e760       _FT_MulDiv_No_Round        100a4760 f   freetype233MT_D:ftbase.obj
 0002:0003e8c0       _FT_MulFix                 100a48c0 f   freetype233MT_D:ftbase.obj
 0002:0003e9b0       _FT_DivFix                 100a49b0 f   freetype233MT_D:ftbase.obj
 0002:0003eaf0       _FT_SqrtFixed              100a4af0 f   freetype233MT_D:ftbase.obj
 0002:0003eb90       _ft_corner_orientation     100a4b90 f   freetype233MT_D:ftbase.obj
 0002:0003ed00       _ft_corner_is_flat         100a4d00 f   freetype233MT_D:ftbase.obj
 0002:0003edd0       _FT_GlyphLoader_New        100a4dd0 f   freetype233MT_D:ftbase.obj
 0002:0003ee50       _FT_GlyphLoader_Rewind     100a4e50 f   freetype233MT_D:ftbase.obj
 0002:0003eeb0       _FT_GlyphLoader_Reset      100a4eb0 f   freetype233MT_D:ftbase.obj
 0002:0003efb0       _FT_GlyphLoader_Done       100a4fb0 f   freetype233MT_D:ftbase.obj
 0002:0003f000       _FT_GlyphLoader_CreateExtra 100a5000 f   freetype233MT_D:ftbase.obj
 0002:0003f150       _FT_GlyphLoader_CheckPoints 100a5150 f   freetype233MT_D:ftbase.obj
 0002:0003f380       _FT_GlyphLoader_CheckSubGlyphs 100a5380 f   freetype233MT_D:ftbase.obj
 0002:0003f4c0       _FT_GlyphLoader_Prepare    100a54c0 f   freetype233MT_D:ftbase.obj
 0002:0003f520       _FT_GlyphLoader_Add        100a5520 f   freetype233MT_D:ftbase.obj
 0002:0003f600       _FT_GlyphLoader_CopyPoints 100a5600 f   freetype233MT_D:ftbase.obj
 0002:0003f740       _FT_Get_Sfnt_Name_Count    100a5740 f   freetype233MT_D:ftbase.obj
 0002:0003f780       _FT_Get_Sfnt_Name          100a5780 f   freetype233MT_D:ftbase.obj
 0002:0003f950       _ft_service_list_lookup    100a5950 f   freetype233MT_D:ftbase.obj
 0002:0003f9d0       _ft_validator_init         100a59d0 f   freetype233MT_D:ftbase.obj
 0002:0003fa00       _ft_validator_run          100a5a00 f   freetype233MT_D:ftbase.obj
 0002:0003fa10       _ft_validator_error        100a5a10 f   freetype233MT_D:ftbase.obj
 0002:0003fa50       _FT_Stream_New             100a5a50 f   freetype233MT_D:ftbase.obj
 0002:0003fbd0       _FT_Stream_Free            100a5bd0 f   freetype233MT_D:ftbase.obj
 0002:0003fc30       _ft_glyphslot_free_bitmap  100a5c30 f   freetype233MT_D:ftbase.obj
 0002:0003fcb0       _ft_glyphslot_set_bitmap   100a5cb0 f   freetype233MT_D:ftbase.obj
 0002:0003fd00       _ft_glyphslot_alloc_bitmap 100a5d00 f   freetype233MT_D:ftbase.obj
 0002:0003fdd0       _FT_New_GlyphSlot          100a5dd0 f   freetype233MT_D:ftbase.obj
 0002:00040120       _FT_Done_GlyphSlot         100a6120 f   freetype233MT_D:ftbase.obj
 0002:000401f0       _FT_Set_Transform          100a61f0 f   freetype233MT_D:ftbase.obj
 0002:00040300       _FT_Load_Glyph             100a6300 f   freetype233MT_D:ftbase.obj
 0002:00040950       _FT_Load_Char              100a6950 f   freetype233MT_D:ftbase.obj
 0002:000409b0       _FT_New_Face               100a69b0 f   freetype233MT_D:ftbase.obj
 0002:00040a40       _FT_New_Memory_Face        100a6a40 f   freetype233MT_D:ftbase.obj
 0002:00040ad0       _FT_Open_Face              100a6ad0 f   freetype233MT_D:ftbase.obj
 0002:00042240       _FT_Attach_File            100a8240 f   freetype233MT_D:ftbase.obj
 0002:000422d0       _FT_Attach_Stream          100a82d0 f   freetype233MT_D:ftbase.obj
 0002:000423f0       _FT_Done_Face              100a83f0 f   freetype233MT_D:ftbase.obj
 0002:000426b0       _FT_New_Size               100a86b0 f   freetype233MT_D:ftbase.obj
 0002:00042860       _FT_Done_Size              100a8860 f   freetype233MT_D:ftbase.obj
 0002:00042970       _FT_Match_Size             100a8970 f   freetype233MT_D:ftbase.obj
 0002:00042ae0       _ft_synthesize_vertical_metrics 100a8ae0 f   freetype233MT_D:ftbase.obj
 0002:00042b30       _FT_Select_Metrics         100a8b30 f   freetype233MT_D:ftbase.obj
 0002:00042cd0       _FT_Request_Metrics        100a8cd0 f   freetype233MT_D:ftbase.obj
 0002:00043020       _FT_Select_Size            100a9020 f   freetype233MT_D:ftbase.obj
 0002:000430c0       _FT_Request_Size           100a90c0 f   freetype233MT_D:ftbase.obj
 0002:00043210       _FT_Set_Char_Size          100a9210 f   freetype233MT_D:ftbase.obj
 0002:00043320       _FT_Set_Pixel_Sizes        100a9320 f   freetype233MT_D:ftbase.obj
 0002:00043410       _FT_Get_Kerning            100a9410 f   freetype233MT_D:ftbase.obj
 0002:00043590       _FT_Get_Track_Kerning      100a9590 f   freetype233MT_D:ftbase.obj
 0002:00043670       _FT_Select_Charmap         100a9670 f   freetype233MT_D:ftbase.obj
 0002:00043720       _FT_Set_Charmap            100a9720 f   freetype233MT_D:ftbase.obj
 0002:000437a0       _FT_Get_Charmap_Index      100a97a0 f   freetype233MT_D:ftbase.obj
 0002:000438b0       _FT_CMap_Done              100a98b0 f   freetype233MT_D:ftbase.obj
 0002:00043a40       _FT_CMap_New               100a9a40 f   freetype233MT_D:ftbase.obj
 0002:00043bd0       _FT_Get_Char_Index         100a9bd0 f   freetype233MT_D:ftbase.obj
 0002:00043c40       _FT_Get_First_Char         100a9c40 f   freetype233MT_D:ftbase.obj
 0002:00043cf0       _FT_Get_Next_Char          100a9cf0 f   freetype233MT_D:ftbase.obj
 0002:00043dd0       _FT_Get_Name_Index         100a9dd0 f   freetype233MT_D:ftbase.obj
 0002:00043ef0       _FT_Get_Glyph_Name         100a9ef0 f   freetype233MT_D:ftbase.obj
 0002:00044040       _FT_Get_Postscript_Name    100aa040 f   freetype233MT_D:ftbase.obj
 0002:00044160       _FT_Get_Sfnt_Table         100aa160 f   freetype233MT_D:ftbase.obj
 0002:00044210       _FT_Load_Sfnt_Table        100aa210 f   freetype233MT_D:ftbase.obj
 0002:000442d0       _FT_Sfnt_Table_Info        100aa2d0 f   freetype233MT_D:ftbase.obj
 0002:00044390       _FT_Get_CMap_Language_ID   100aa390 f   freetype233MT_D:ftbase.obj
 0002:00044490       _FT_Activate_Size          100aa490 f   freetype233MT_D:ftbase.obj
 0002:000444e0       _FT_Lookup_Renderer        100aa4e0 f   freetype233MT_D:ftbase.obj
 0002:00044600       _FT_Get_Renderer           100aa600 f   freetype233MT_D:ftbase.obj
 0002:00044620       _FT_Set_Renderer           100aa620 f   freetype233MT_D:ftbase.obj
 0002:00044720       _FT_Render_Glyph_Internal  100aa720 f   freetype233MT_D:ftbase.obj
 0002:00044880       _FT_Render_Glyph           100aa880 f   freetype233MT_D:ftbase.obj
 0002:000448d0       _FT_Add_Module             100aa8d0 f   freetype233MT_D:ftbase.obj
 0002:00044d60       _FT_Get_Module             100aad60 f   freetype233MT_D:ftbase.obj
 0002:00044e00       _FT_Get_Module_Interface   100aae00 f   freetype233MT_D:ftbase.obj
 0002:00044e60       _ft_module_get_service     100aae60 f   freetype233MT_D:ftbase.obj
 0002:00044fa0       _FT_Remove_Module          100aafa0 f   freetype233MT_D:ftbase.obj
 0002:00045290       _FT_New_Library            100ab290 f   freetype233MT_D:ftbase.obj
 0002:00045390       _FT_Library_Version        100ab390 f   freetype233MT_D:ftbase.obj
 0002:00045410       _FT_Done_Library           100ab410 f   freetype233MT_D:ftbase.obj
 0002:00045550       _FT_Set_Debug_Hook         100ab550 f   freetype233MT_D:ftbase.obj
 0002:00045580       _FT_Get_TrueType_Engine_Type 100ab580 f   freetype233MT_D:ftbase.obj
 0002:00045600       _ft_stub_set_char_sizes    100ab600 f   freetype233MT_D:ftbase.obj
 0002:000456e0       _ft_stub_set_pixel_sizes   100ab6e0 f   freetype233MT_D:ftbase.obj
 0002:000457a0       _FT_Get_SubGlyph_Info      100ab7a0 f   freetype233MT_D:ftbase.obj
 0002:00045840       _FT_Outline_Decompose      100ab840 f   freetype233MT_D:ftbase.obj
 0002:00045e10       _FT_Outline_New_Internal   100abe10 f   freetype233MT_D:ftbase.obj
 0002:00045f70       _FT_Outline_New            100abf70 f   freetype233MT_D:ftbase.obj
 0002:00045fb0       _FT_Outline_Check          100abfb0 f   freetype233MT_D:ftbase.obj
 0002:00046070       _FT_Outline_Copy           100ac070 f   freetype233MT_D:ftbase.obj
 0002:00046170       _FT_Outline_Done_Internal  100ac170 f   freetype233MT_D:ftbase.obj
 0002:00046240       _FT_Outline_Done           100ac240 f   freetype233MT_D:ftbase.obj
 0002:00046270       _FT_Outline_Get_CBox       100ac270 f   freetype233MT_D:ftbase.obj
 0002:000463a0       _FT_Outline_Translate      100ac3a0 f   freetype233MT_D:ftbase.obj
 0002:00046420       _FT_Outline_Reverse        100ac420 f   freetype233MT_D:ftbase.obj
 0002:00046590       _FT_Outline_Render         100ac590 f   freetype233MT_D:ftbase.obj
 0002:000466d0       _FT_Outline_Get_Bitmap     100ac6d0 f   freetype233MT_D:ftbase.obj
 0002:00046780       _FT_Vector_Transform       100ac780 f   freetype233MT_D:ftbase.obj
 0002:00046830       _FT_Outline_Transform      100ac830 f   freetype233MT_D:ftbase.obj
 0002:000468a0       _FT_Outline_Embolden       100ac8a0 f   freetype233MT_D:ftbase.obj
 0002:00046bb0       _FT_Outline_Get_Orientation 100acbb0 f   freetype233MT_D:ftbase.obj
 0002:00046fa0       _FT_Raccess_Get_HeaderInfo 100acfa0 f   freetype233MT_D:ftbase.obj
 0002:00047230       _FT_Raccess_Get_DataOffsets 100ad230 f   freetype233MT_D:ftbase.obj
 0002:000474d0       _FT_Raccess_Guess          100ad4d0 f   freetype233MT_D:ftbase.obj
 0002:00047e50       _FT_Stream_OpenMemory      100ade50 f   freetype233MT_D:ftbase.obj
 0002:00047e90       _FT_Stream_Close           100ade90 f   freetype233MT_D:ftbase.obj
 0002:00047ed0       _FT_Stream_Seek            100aded0 f   freetype233MT_D:ftbase.obj
 0002:00047f80       _FT_Stream_Skip            100adf80 f   freetype233MT_D:ftbase.obj
 0002:00047fb0       _FT_Stream_Pos             100adfb0 f   freetype233MT_D:ftbase.obj
 0002:00047fc0       _FT_Stream_Read            100adfc0 f   freetype233MT_D:ftbase.obj
 0002:00047ff0       _FT_Stream_ReadAt          100adff0 f   freetype233MT_D:ftbase.obj
 0002:000480f0       _FT_Stream_TryRead         100ae0f0 f   freetype233MT_D:ftbase.obj
 0002:000481b0       _FT_Stream_ExtractFrame    100ae1b0 f   freetype233MT_D:ftbase.obj
 0002:00048210       _FT_Stream_ReleaseFrame    100ae210 f   freetype233MT_D:ftbase.obj
 0002:00048270       _FT_Stream_EnterFrame      100ae270 f   freetype233MT_D:ftbase.obj
 0002:00048470       _FT_Stream_ExitFrame       100ae470 f   freetype233MT_D:ftbase.obj
 0002:000484f0       _FT_Stream_GetChar         100ae4f0 f   freetype233MT_D:ftbase.obj
 0002:00048570       _FT_Stream_GetShort        100ae570 f   freetype233MT_D:ftbase.obj
 0002:00048610       _FT_Stream_GetShortLE      100ae610 f   freetype233MT_D:ftbase.obj
 0002:000486b0       _FT_Stream_GetOffset       100ae6b0 f   freetype233MT_D:ftbase.obj
 0002:00048760       _FT_Stream_GetLong         100ae760 f   freetype233MT_D:ftbase.obj
 0002:00048810       _FT_Stream_GetLongLE       100ae810 f   freetype233MT_D:ftbase.obj
 0002:000488c0       _FT_Stream_ReadChar        100ae8c0 f   freetype233MT_D:ftbase.obj
 0002:000489e0       _FT_Stream_ReadShort       100ae9e0 f   freetype233MT_D:ftbase.obj
 0002:00048b40       _FT_Stream_ReadShortLE     100aeb40 f   freetype233MT_D:ftbase.obj
 0002:00048ca0       _FT_Stream_ReadOffset      100aeca0 f   freetype233MT_D:ftbase.obj
 0002:00048e10       _FT_Stream_ReadLong        100aee10 f   freetype233MT_D:ftbase.obj
 0002:00048f80       _FT_Stream_ReadLongLE      100aef80 f   freetype233MT_D:ftbase.obj
 0002:00049100       _FT_Stream_ReadFields      100af100 f   freetype233MT_D:ftbase.obj
 0002:00049480       _FT_Cos                    100af480 f   freetype233MT_D:ftbase.obj
 0002:000496a0       _FT_Sin                    100af6a0 f   freetype233MT_D:ftbase.obj
 0002:000496c0       _FT_Tan                    100af6c0 f   freetype233MT_D:ftbase.obj
 0002:00049740       _FT_Atan2                  100af740 f   freetype233MT_D:ftbase.obj
 0002:00049ac0       _FT_Vector_Unit            100afac0 f   freetype233MT_D:ftbase.obj
 0002:00049b10       _FT_Vector_Rotate          100afb10 f   freetype233MT_D:ftbase.obj
 0002:00049d30       _FT_Vector_Length          100afd30 f   freetype233MT_D:ftbase.obj
 0002:00049e30       _FT_Vector_Polarize        100afe30 f   freetype233MT_D:ftbase.obj
 0002:00049f00       _FT_Vector_From_Polar      100aff00 f   freetype233MT_D:ftbase.obj
 0002:00049f30       _FT_Angle_Diff             100aff30 f   freetype233MT_D:ftbase.obj
 0002:00049f80       _ft_mem_alloc              100aff80 f   freetype233MT_D:ftbase.obj
 0002:0004a020       _ft_mem_qalloc             100b0020 f   freetype233MT_D:ftbase.obj
 0002:0004a0a0       _ft_mem_realloc            100b00a0 f   freetype233MT_D:ftbase.obj
 0002:0004a160       _ft_mem_qrealloc           100b0160 f   freetype233MT_D:ftbase.obj
 0002:0004a2c0       _ft_mem_free               100b02c0 f   freetype233MT_D:ftbase.obj
 0002:0004a2f0       _ft_mem_dup                100b02f0 f   freetype233MT_D:ftbase.obj
 0002:0004a390       _ft_mem_strdup             100b0390 f   freetype233MT_D:ftbase.obj
 0002:0004a400       _ft_mem_strcpyn            100b0400 f   freetype233MT_D:ftbase.obj
 0002:0004a450       _FT_List_Find              100b0450 f   freetype233MT_D:ftbase.obj
 0002:0004a490       _FT_List_Add               100b0490 f   freetype233MT_D:ftbase.obj
 0002:0004a4e0       _FT_List_Insert            100b04e0 f   freetype233MT_D:ftbase.obj
 0002:0004a530       _FT_List_Remove            100b0530 f   freetype233MT_D:ftbase.obj
 0002:0004a590       _FT_List_Up                100b0590 f   freetype233MT_D:ftbase.obj
 0002:0004a610       _FT_List_Iterate           100b0610 f   freetype233MT_D:ftbase.obj
 0002:0004a690       _FT_List_Finalize          100b0690 f   freetype233MT_D:ftbase.obj
 0002:0004a740       _ft_highpow2               100b0740 f   freetype233MT_D:ftbase.obj
 0002:0004a770       _FT_Alloc                  100b0770 f   freetype233MT_D:ftbase.obj
 0002:0004a7f0       _FT_QAlloc                 100b07f0 f   freetype233MT_D:ftbase.obj
 0002:0004a870       _FT_Realloc                100b0870 f   freetype233MT_D:ftbase.obj
 0002:0004a8f0       _FT_QRealloc               100b08f0 f   freetype233MT_D:ftbase.obj
 0002:0004a970       _FT_Free                   100b0970 f   freetype233MT_D:ftbase.obj
 0002:0004db60       _FT_Add_Default_Modules    100b3b60 f   freetype233MT_D:ftinit.obj
 0002:0004dbe0       _FT_Init_FreeType          100b3be0 f   freetype233MT_D:ftinit.obj
 0002:0004dc80       _FT_Done_FreeType          100b3c80 f   freetype233MT_D:ftinit.obj
 0002:0004dd20       _FT_Stream_Open            100b3d20 f   freetype233MT_D:ftsystem.obj
 0002:0004dec0       _FT_New_Memory             100b3ec0 f   freetype233MT_D:ftsystem.obj
 0002:0004df90       _FT_Done_Memory            100b3f90 f   freetype233MT_D:ftsystem.obj
 0002:0004e060       _FT_Message                100b4060 f   freetype233MT_D:ftdebug.obj
 0002:0004e0c0       _FT_Panic                  100b40c0 f   freetype233MT_D:ftdebug.obj
 0002:0004e120       _ft_debug_init             100b4120 f   freetype233MT_D:ftdebug.obj
 0002:0006a300       _ps_hints_apply            100d0300 f   freetype233MT_D:pshinter.obj
 0002:000a5900       _TT_New_Context            1010b900 f   freetype233MT_D:truetype.obj
 0002:000a5b20       _TT_RunIns                 1010bb20 f   freetype233MT_D:truetype.obj
 0002:000b3350       _af_glyph_hints_dump_points 10119350 f   freetype233MT_D:autofit.obj
 0002:000b3360       _af_glyph_hints_dump_segments 10119360 f   freetype233MT_D:autofit.obj
 0002:000b3370       _af_glyph_hints_dump_edges 10119370 f   freetype233MT_D:autofit.obj
 0002:000bc920       _FT_Stream_OpenLZW         10122920 f   freetype233MT_D:ftlzw.obj
 0002:000bd040       _ft_lzwstate_reset         10123040 f   freetype233MT_D:ftlzw.obj
 0002:000bd0a0       _ft_lzwstate_init          101230a0 f   freetype233MT_D:ftlzw.obj
 0002:000bd120       _ft_lzwstate_done          10123120 f   freetype233MT_D:ftlzw.obj
 0002:000bd1c0       _ft_lzwstate_io            101231c0 f   freetype233MT_D:ftlzw.obj
 0002:000bdea0       _FT_Stream_OpenGzip        10123ea0 f   freetype233MT_D:ftgzip.obj
 0002:000c3ae0       _FT_Matrix_Multiply        10129ae0 f   freetype233MT_D:ftglyph.obj
 0002:000c3c10       _FT_Matrix_Invert          10129c10 f   freetype233MT_D:ftglyph.obj
 0002:000c4190       _FT_Glyph_Copy             1012a190 f   freetype233MT_D:ftglyph.obj
 0002:000c4350       _FT_Get_Glyph              1012a350 f   freetype233MT_D:ftglyph.obj
 0002:000c44c0       _FT_Glyph_Transform        1012a4c0 f   freetype233MT_D:ftglyph.obj
 0002:000c4560       _FT_Glyph_Get_CBox         1012a560 f   freetype233MT_D:ftglyph.obj
 0002:000c4690       _FT_Glyph_To_Bitmap        1012a690 f   freetype233MT_D:ftglyph.obj
 0002:000c4970       _FT_Done_Glyph             1012a970 f   freetype233MT_D:ftglyph.obj
 0002:000c4db0       _FT_Bitmap_New             1012adb0 f   freetype233MT_D:ftbitmap.obj
 0002:000c4df0       _FT_Bitmap_Copy            1012adf0 f   freetype233MT_D:ftbitmap.obj
 0002:000c4fa0       _FT_Bitmap_Embolden        1012afa0 f   freetype233MT_D:ftbitmap.obj
 0002:000c56e0       _FT_Bitmap_Convert         1012b6e0 f   freetype233MT_D:ftbitmap.obj
 0002:000c5ca0       _FT_Bitmap_Done            1012bca0 f   freetype233MT_D:ftbitmap.obj
 0002:000c6114       _OutputDebugStringA@4      1012c114 f   kernel32:KERNEL32.dll
 0002:000c6120       ??_U@YAPAXI@Z              1012c120 f   msvcprtd:newaop_s.obj
 0002:000c6136       ??1?$basic_string@DU?$char_traits@D@std@@V?$allocator@D@2@@std@@QAE@XZ 1012c136 f   msvcprtd:MSVCP80D.dll
 0002:000c613c       ?c_str@?$basic_string@DU?$char_traits@D@std@@V?$allocator@D@2@@std@@QBEPBDXZ 1012c13c f   msvcprtd:MSVCP80D.dll
 0002:000c6142       ?length@?$basic_string@DU?$char_traits@D@std@@V?$allocator@D@2@@std@@QBEIXZ 1012c142 f   msvcprtd:MSVCP80D.dll
 0002:000c6148       ??0?$basic_string@DU?$char_traits@D@std@@V?$allocator@D@2@@std@@QAE@PBD@Z 1012c148 f   msvcprtd:MSVCP80D.dll
 0002:000c614e       ??1?$basic_string@_WU?$char_traits@_W@std@@V?$allocator@_W@2@@std@@QAE@XZ 1012c14e f   msvcprtd:MSVCP80D.dll
 0002:000c6154       ?c_str@?$basic_string@_WU?$char_traits@_W@std@@V?$allocator@_W@2@@std@@QBEPB_WXZ 1012c154 f   msvcprtd:MSVCP80D.dll
 0002:000c615a       ?length@?$basic_string@_WU?$char_traits@_W@std@@V?$allocator@_W@2@@std@@QBEIXZ 1012c15a f   msvcprtd:MSVCP80D.dll
 0002:000c6160       ??0?$basic_string@_WU?$char_traits@_W@std@@V?$allocator@_W@2@@std@@QAE@PB_W@Z 1012c160 f   msvcprtd:MSVCP80D.dll
 0002:000c6170       __RTC_CheckEsp             1012c170 f   MSVCRTD:stack.obj
 0002:000c61a0       @_RTC_CheckStackVars@8     1012c1a0 f   MSVCRTD:stack.obj
 0002:000c6220       @_RTC_AllocaHelper@12      1012c220 f   MSVCRTD:stack.obj
 0002:000c6260       @_RTC_CheckStackVars2@12   1012c260 f   MSVCRTD:stack.obj
 0002:000c6370       __RTC_InitBase             1012c370 f   MSVCRTD:init.obj
 0002:000c63b0       __RTC_Shutdown             1012c3b0 f   MSVCRTD:init.obj
 0002:000c63d0       ??2@YAPAXI@Z               1012c3d0 f   MSVCRTD:MSVCR80D.dll
 0002:000c63d6       ___CxxFrameHandler3        1012c3d6 f   MSVCRTD:MSVCR80D.dll
 0002:000c63e0       @__security_check_cookie@4 1012c3e0 f   MSVCRTD:secchk.obj
 0002:000c6400       ??0type_info@@AAE@ABV0@@Z  1012c400 f   MSVCRTD:ti_inst.obj
 0002:000c6420       ??_Etype_info@@UAEPAXI@Z   1012c420 f i MSVCRTD:ti_inst.obj
 0002:000c64b0       ??4type_info@@AAEAAV0@ABV0@@Z 1012c4b0 f   MSVCRTD:ti_inst.obj
 0002:000c64c4       ??3@YAXPAX@Z               1012c4c4 f   MSVCRTD:MSVCR80D.dll
 0002:000c64ca       __purecall                 1012c4ca f   MSVCRTD:MSVCR80D.dll
 0002:000c64d0       _memset                    1012c4d0 f   MSVCRTD:MSVCR80D.dll
 0002:000c64e0       __onexit                   1012c4e0 f   MSVCRTD:atonexit.obj
 0002:000c6620       _atexit                    1012c620 f   MSVCRTD:atonexit.obj
 0002:000c6640       _fabs                      1012c640 f   MSVCRTD:MSVCR80D.dll
 0002:000c6646       _sqrt                      1012c646 f   MSVCRTD:MSVCR80D.dll
 0002:000c664c       _memcpy                    1012c64c f   MSVCRTD:MSVCR80D.dll
 0002:000c6652       _sprintf                   1012c652 f   MSVCRTD:MSVCR80D.dll
 0002:000c6658       ??_V@YAXPAX@Z              1012c658 f   MSVCRTD:MSVCR80D.dll
 0002:000c665e       _mbstowcs_s                1012c65e f   MSVCRTD:MSVCR80D.dll
 0002:000c6664       _wcstombs_s                1012c664 f   MSVCRTD:MSVCR80D.dll
 0002:000c6670       __ftol2_sse                1012c670 f   MSVCRTD:ftol2.obj
 0002:000c6679       __ftol2_pentium4           1012c679 f   MSVCRTD:ftol2.obj
 0002:000c668c       __ftol2_sse_excpt          1012c68c f   MSVCRTD:ftol2.obj
 0002:000c66a6       __ftol2                    1012c6a6 f   MSVCRTD:ftol2.obj
 0002:000c6746       _cos                       1012c746 f   MSVCRTD:MSVCR80D.dll
 0002:000c674c       _sin                       1012c74c f   MSVCRTD:MSVCR80D.dll
 0002:000c6760       ??_L@YGXPAXIHP6EX0@Z1@Z    1012c760 f   MSVCRTD:ehvecctr.obj
 0002:000c6840       ??_M@YGXPAXIHP6EX0@Z@Z     1012c840 f   MSVCRTD:ehvecdtr.obj
 0002:000c6920       ?__ArrayUnwind@@YGXPAXIHP6EX0@Z@Z 1012c920 f   MSVCRTD:ehvecdtr.obj
 0002:000c6a10       _DebuggerKnownHandle       1012ca10 f   MSVCRTD:error.obj
 0002:000c6ae0       ?_RTC_Failure@@YAXPAXH@Z   1012cae0 f   MSVCRTD:error.obj
 0002:000c6ee0       ?_RTC_StackFailure@@YAXPAXPBD@Z 1012cee0 f   MSVCRTD:error.obj
 0002:000c7050       ?_RTC_AllocaFailure@@YAXPAXPAU_RTC_ALLOCA_NODE@@H@Z 1012d050 f   MSVCRTD:error.obj
 0002:000c7260       __RTC_UninitUse            1012d260 f   MSVCRTD:error.obj
 0002:000c7450       __CRT_INIT@12              1012d450 f   MSVCRTD:crtdll.obj
 0002:000c7710       _NtCurrentTeb              1012d710 f i MSVCRTD:crtdll.obj
 0002:000c7720       __DllMainCRTStartup@12     1012d720 f   MSVCRTD:crtdll.obj
 0002:000c7980       _memmove                   1012d980 f   MSVCRTD:MSVCR80D.dll
 0002:000c7986       _strcmp                    1012d986 f   MSVCRTD:MSVCR80D.dll
 0002:000c798c       _longjmp                   1012d98c f   MSVCRTD:MSVCR80D.dll
 0002:000c7992       _strlen                    1012d992 f   MSVCRTD:MSVCR80D.dll
 0002:000c7998       _strcat                    1012d998 f   MSVCRTD:MSVCR80D.dll
 0002:000c799e       _strncpy                   1012d99e f   MSVCRTD:MSVCR80D.dll
 0002:000c79a4       _strrchr                   1012d9a4 f   MSVCRTD:MSVCR80D.dll
 0002:000c79aa       _ftell                     1012d9aa f   MSVCRTD:MSVCR80D.dll
 0002:000c79b0       _fseek                     1012d9b0 f   MSVCRTD:MSVCR80D.dll
 0002:000c79b6       _fopen                     1012d9b6 f   MSVCRTD:MSVCR80D.dll
 0002:000c79bc       _fclose                    1012d9bc f   MSVCRTD:MSVCR80D.dll
 0002:000c79c2       _fread                     1012d9c2 f   MSVCRTD:MSVCR80D.dll
 0002:000c79c8       _malloc                    1012d9c8 f   MSVCRTD:MSVCR80D.dll
 0002:000c79ce       _realloc                   1012d9ce f   MSVCRTD:MSVCR80D.dll
 0002:000c79d4       _free                      1012d9d4 f   MSVCRTD:MSVCR80D.dll
 0002:000c79da       _vsprintf                  1012d9da f   MSVCRTD:MSVCR80D.dll
 0002:000c79e0       _exit                      1012d9e0 f   MSVCRTD:MSVCR80D.dll
 0002:000c79e6       _getenv                    1012d9e6 f   MSVCRTD:MSVCR80D.dll
 0002:000c79ec       _memcmp                    1012d9ec f   MSVCRTD:MSVCR80D.dll
 0002:000c79f2       _qsort                     1012d9f2 f   MSVCRTD:MSVCR80D.dll
 0002:000c79f8       __setjmp3                  1012d9f8 f   MSVCRTD:MSVCR80D.dll
 0002:000c79fe       _memchr                    1012d9fe f   MSVCRTD:MSVCR80D.dll
 0002:000c7a04       _strncmp                   1012da04 f   MSVCRTD:MSVCR80D.dll
 0002:000c7a0a       _isdigit                   1012da0a f   MSVCRTD:MSVCR80D.dll
 0002:000c7a10       _atol                      1012da10 f   MSVCRTD:MSVCR80D.dll
 0002:000c7a16       _isxdigit                  1012da16 f   MSVCRTD:MSVCR80D.dll
 0002:000c7a1c       _strstr                    1012da1c f   MSVCRTD:MSVCR80D.dll
 0002:000c7a30       __RTC_NumErrors            1012da30 f   MSVCRTD:userapi.obj
 0002:000c7a40       __RTC_GetErrDesc           1012da40 f   MSVCRTD:userapi.obj
 0002:000c7a60       __RTC_SetErrorType         1012da60 f   MSVCRTD:userapi.obj
 0002:000c7a90       __RTC_SetErrorFunc         1012da90 f   MSVCRTD:userapi.obj
 0002:000c7ac0       __RTC_SetErrorFuncW        1012dac0 f   MSVCRTD:userapi.obj
 0002:000c7af0       ?_RTC_GetErrorFunc@@YAP6AHHPBDH00ZZPBX@Z 1012daf0 f   MSVCRTD:userapi.obj
 0002:000c7b00       ?_RTC_GetErrorFuncW@@YAP6AHHPB_WH00ZZPBX@Z 1012db00 f   MSVCRTD:userapi.obj
 0002:000c7b06       __CRT_RTC_INITW            1012db06 f   MSVCRTD:MSVCR80D.dll
 0002:000c7b10       ___report_gsfailure        1012db10 f   MSVCRTD:gs_report.obj
 0002:000c7c60       __unlock                   1012dc60 f   MSVCRTD:MSVCR80D.dll
 0002:000c7c66       __encode_pointer           1012dc66 f   MSVCRTD:MSVCR80D.dll
 0002:000c7c6c       ___dllonexit               1012dc6c f   MSVCRTD:MSVCR80D.dll
 0002:000c7c72       __lock                     1012dc72 f   MSVCRTD:MSVCR80D.dll
 0002:000c7c78       __decode_pointer           1012dc78 f   MSVCRTD:MSVCR80D.dll
 0002:000c7c80       __except_handler4          1012dc80 f   MSVCRTD:chandler4gs.obj
 0002:000c7cb0       __get_sse2_info            1012dcb0 f   MSVCRTD:cpu_disp.obj
 0002:000c7e20       ___sse2_available_init     1012de20 f   MSVCRTD:cpu_disp.obj
 0002:000c7e36       ?terminate@@YAXXZ          1012de36 f   MSVCRTD:MSVCR80D.dll
 0002:000c7e40       ?_RTC_GetSrcLine@@YAHPAEPA_WKPAH1K@Z 1012de40 f   MSVCRTD:pdblkup.obj
 0002:000c83f0       ___clean_type_info_names   1012e3f0 f   MSVCRTD:tncleanup.obj
 0002:000c8410       __RTC_Initialize           1012e410 f   MSVCRTD:initsect.obj
 0002:000c8440       __RTC_Terminate            1012e440 f   MSVCRTD:initsect.obj
 0002:000c846e       __malloc_dbg               1012e46e f   MSVCRTD:MSVCR80D.dll
 0002:000c8474       __encoded_null             1012e474 f   MSVCRTD:MSVCR80D.dll
 0002:000c847a       __free_dbg                 1012e47a f   MSVCRTD:MSVCR80D.dll
 0002:000c8480       __CrtSetCheckCount         1012e480 f   MSVCRTD:MSVCR80D.dll
 0002:000c8490       __ValidateImageBase        1012e490 f   MSVCRTD:pesect.obj
 0002:000c8510       __FindPESection            1012e510 f   MSVCRTD:pesect.obj
 0002:000c85a0       __IsNonwritableInCurrentImage 1012e5a0 f   MSVCRTD:pesect.obj
 0002:000c86f4       __initterm                 1012e6f4 f   MSVCRTD:MSVCR80D.dll
 0002:000c86fa       __initterm_e               1012e6fa f   MSVCRTD:MSVCR80D.dll
 0002:000c8700       __amsg_exit                1012e700 f   MSVCRTD:MSVCR80D.dll
 0002:000c8710       ___security_init_cookie    1012e710 f   MSVCRTD:gs_support.obj
 0002:000c8870       ___CppXcptFilter           1012e870 f   MSVCRTD:MSVCR80D.dll
 0002:000c8880       _DllMain@12                1012e880 f   MSVCRTD:dllmain.obj
 0002:000c88ae       __crt_debugger_hook        1012e8ae f   MSVCRTD:MSVCR80D.dll
 0002:000c88b4       ?_type_info_dtor_internal_method@type_info@@QAEXXZ 1012e8b4 f   MSVCRTD:MSVCR80D.dll
 0002:000c88b4       ??1type_info@@UAE@XZ       1012e8b4 f   MSVCRTD:MSVCR80D.dll
 0002:000c88ba       __except_handler4_common   1012e8ba f   MSVCRTD:MSVCR80D.dll
 0002:000c88c0       ___clean_type_info_names_internal 1012e8c0 f   MSVCRTD:MSVCR80D.dll
 0002:000c88c6       _RaiseException@16         1012e8c6 f   kernel32:KERNEL32.dll
 0002:000c88cc       _DebugBreak@0              1012e8cc f   kernel32:KERNEL32.dll
 0002:000c88d2       _WideCharToMultiByte@32    1012e8d2 f   kernel32:KERNEL32.dll
 0002:000c88d8       _IsDebuggerPresent@0       1012e8d8 f   kernel32:KERNEL32.dll
 0002:000c88de       _MultiByteToWideChar@24    1012e8de f   kernel32:KERNEL32.dll
 0002:000c88e4       _lstrlenA@4                1012e8e4 f   kernel32:KERNEL32.dll
 0002:000c88ea       _GetProcAddress@8          1012e8ea f   kernel32:KERNEL32.dll
 0002:000c88f0       _LoadLibraryA@4            1012e8f0 f   kernel32:KERNEL32.dll
 0002:000c88f6       _InterlockedExchange@8     1012e8f6 f   kernel32:KERNEL32.dll
 0002:000c88fc       _Sleep@4                   1012e8fc f   kernel32:KERNEL32.dll
 0002:000c8902       _InterlockedCompareExchange@12 1012e902 f   kernel32:KERNEL32.dll
 0002:000c8908       _TerminateProcess@8        1012e908 f   kernel32:KERNEL32.dll
 0002:000c890e       _GetCurrentProcess@0       1012e90e f   kernel32:KERNEL32.dll
 0002:000c8914       _UnhandledExceptionFilter@4 1012e914 f   kernel32:KERNEL32.dll
 0002:000c891a       _SetUnhandledExceptionFilter@4 1012e91a f   kernel32:KERNEL32.dll
 0002:000c8920       _HeapFree@12               1012e920 f   kernel32:KERNEL32.dll
 0002:000c8926       _HeapAlloc@12              1012e926 f   kernel32:KERNEL32.dll
 0002:000c892c       _GetProcessHeap@0          1012e92c f   kernel32:KERNEL32.dll
 0002:000c8932       _GetModuleFileNameW@12     1012e932 f   kernel32:KERNEL32.dll
 0002:000c8938       _VirtualQuery@12           1012e938 f   kernel32:KERNEL32.dll
 0002:000c893e       _FreeLibrary@4             1012e93e f   kernel32:KERNEL32.dll
 0002:000c8944       _QueryPerformanceCounter@4 1012e944 f   kernel32:KERNEL32.dll
 0002:000c894a       _GetTickCount@0            1012e94a f   kernel32:KERNEL32.dll
 0002:000c8950       _GetCurrentThreadId@0      1012e950 f   kernel32:KERNEL32.dll
 0002:000c8956       _GetCurrentProcessId@0     1012e956 f   kernel32:KERNEL32.dll
 0002:000c895c       _GetSystemTimeAsFileTime@4 1012e95c f   kernel32:KERNEL32.dll
 0002:000c8962       _FatalAppExitA@8           1012e962 f   kernel32:KERNEL32.dll
 0002:000c8968       _DisableThreadLibraryCalls@4 1012e968 f   kernel32:KERNEL32.dll
 0003:00000000       ___xc_a                    10138000     MSVCRTD:cinitexe.obj
 0003:00000600       ___xc_z                    10138600     MSVCRTD:cinitexe.obj
 0003:00000704       ___xi_a                    10138704     MSVCRTD:cinitexe.obj
 0003:00000a10       ___xi_z                    10138a10     MSVCRTD:cinitexe.obj
 0003:00000b3c       ??_C@_05MHMEBBGO@scale?$AA@ 10138b3c     animatedmesh.obj
 0003:00000b44       ??_C@_06BBLOAEEI@center?$AA@ 10138b44     animatedmesh.obj
 0003:00000b4c       ??_C@_0L@OHGGIBMA@lowerRight?$AA@ 10138b4c     animatedmesh.obj
 0003:00000b5c       ??_C@_09FJHAPNIB@upperLeft?$AA@ 10138b5c     animatedmesh.obj
 0003:00000b68       ??_C@_07MIODBOCF@spinBox?$AA@ 10138b68     animatedmesh.obj
 0003:00000b74       ??_C@_06NFBEFKOC@window?$AA@ 10138b74     animatedmesh.obj
 0003:00000b7c       ??_C@_07PFIIOOG@toolBar?$AA@ 10138b7c     animatedmesh.obj
 0003:00000b88       ??_C@_0L@DJIGLIII@tabControl?$AA@ 10138b88     animatedmesh.obj
 0003:00000b98       ??_C@_03CEDILPBK@tab?$AA@  10138b98     animatedmesh.obj
 0003:00000b9c       ??_C@_0L@CPIMMKGM@staticText?$AA@ 10138b9c     animatedmesh.obj
 0003:00000bac       ??_C@_09LBJLMBCK@scrollBar?$AA@ 10138bac     animatedmesh.obj
 0003:00000bb8       ??_C@_0M@EDHOMHDD@modalScreen?$AA@ 10138bb8     animatedmesh.obj
 0003:00000bc8       ??_C@_0L@CPJFFMKA@messageBox?$AA@ 10138bc8     animatedmesh.obj
 0003:00000bd8       ??_C@_0L@GJAHOOLO@meshViewer?$AA@ 10138bd8     animatedmesh.obj
 0003:00000be8       ??_C@_07BHCDEKGB@listBox?$AA@ 10138be8     animatedmesh.obj
 0003:00000bf4       ??_C@_05NGOMGBBD@image?$AA@ 10138bf4     animatedmesh.obj
 0003:00000bfc       ??_C@_0L@BHHBLABA@inOutFader?$AA@ 10138bfc     animatedmesh.obj
 0003:00000c0c       ??_C@_0BC@KEHFCPCG@colorSelectDialog?$AA@ 10138c0c     animatedmesh.obj
 0003:00000c24       ??_C@_0P@NJNBDMN@fileOpenDialog?$AA@ 10138c24     animatedmesh.obj
 0003:00000c38       ??_C@_07MLPGBBHH@editBox?$AA@ 10138c38     animatedmesh.obj
 0003:00000c44       ??_C@_04EEIGNHLG@menu?$AA@ 10138c44     animatedmesh.obj
 0003:00000c4c       ??_C@_0M@BBAOMMJI@contextMenu?$AA@ 10138c4c     animatedmesh.obj
 0003:00000c5c       ??_C@_08FEJMGIJK@comboBox?$AA@ 10138c5c     animatedmesh.obj
 0003:00000c68       ??_C@_08FDGKFKIB@checkBox?$AA@ 10138c68     animatedmesh.obj
 0003:00000c74       ??_C@_06HFKPFKMP@button?$AA@ 10138c74     animatedmesh.obj
 0003:00000c7c       ??_C@_0P@PELALBFA@frustum_sphere?$AA@ 10138c7c     animatedmesh.obj
 0003:00000c90       ??_C@_0M@JBGEMOJF@frustum_box?$AA@ 10138c90     animatedmesh.obj
 0003:00000ca0       ??_C@_03OLPJGAII@box?$AA@  10138ca0     animatedmesh.obj
 0003:00000ca4       ??_C@_05LAPONLG@false?$AA@ 10138ca4     animatedmesh.obj
 0003:00000cac       ??_C@_03PEPEBJCG@gt0?$AA@  10138cac     animatedmesh.obj
 0003:00000cb0       ??_C@_05HCPJILEC@ge128?$AA@ 10138cb0     animatedmesh.obj
 0003:00000cb8       ??_C@_05BIODCFPJ@blend?$AA@ 10138cb8     animatedmesh.obj
 0003:00000cc0       ??_C@_06EOIELIPE@filter?$AA@ 10138cc0     animatedmesh.obj
 0003:00000cc8       ??_C@_03BDGOHNNK@add?$AA@  10138cc8     animatedmesh.obj
 0003:00000ccc       ??_C@_0BB@ELGFIMDC@gl_src_alpha_sat?$AA@ 10138ccc     animatedmesh.obj
 0003:00000ce0       ??_C@_0BH@PFLOGBAC@gl_one_minus_dst_alpha?$AA@ 10138ce0     animatedmesh.obj
 0003:00000cfc       ??_C@_0N@GHMHBGGP@gl_dst_alpha?$AA@ 10138cfc     animatedmesh.obj
 0003:00000d0c       ??_C@_0BH@FBMJNHOC@gl_one_minus_src_alpha?$AA@ 10138d0c     animatedmesh.obj
 0003:00000d28       ??_C@_0N@MDLAKAIP@gl_src_alpha?$AA@ 10138d28     animatedmesh.obj
 0003:00000d38       ??_C@_0BH@CFMOLDAJ@gl_one_minus_src_color?$AA@ 10138d38     animatedmesh.obj
 0003:00000d54       ??_C@_0N@LHLHMEGE@gl_src_color?$AA@ 10138d54     animatedmesh.obj
 0003:00000d64       ??_C@_0BH@IBLJAFOJ@gl_one_minus_dst_color?$AA@ 10138d64     animatedmesh.obj
 0003:00000d80       ??_C@_0N@BDMAHCIE@gl_dst_color?$AA@ 10138d80     animatedmesh.obj
 0003:00000d90       ??_C@_06NAHBFLEM@gl_one?$AA@ 10138d90     animatedmesh.obj
 0003:00000d98       ??_C@_07PLLHCBIO@gl_zero?$AA@ 10138d98     animatedmesh.obj
 0003:00000da4       ??_C@_0P@GHFPNOJB@bad?5allocation?$AA@ 10138da4     animatedmesh.obj
 0003:00000ebc       ?collate@?$_Locbase@H@std@@2HB 10138ebc     animatedmesh.obj
 0003:00000ec0       ?ctype@?$_Locbase@H@std@@2HB 10138ec0     animatedmesh.obj
 0003:00000ec4       ?monetary@?$_Locbase@H@std@@2HB 10138ec4     animatedmesh.obj
 0003:00000ec8       ?numeric@?$_Locbase@H@std@@2HB 10138ec8     animatedmesh.obj
 0003:00000ecc       ?time@?$_Locbase@H@std@@2HB 10138ecc     animatedmesh.obj
 0003:00000ed0       ?messages@?$_Locbase@H@std@@2HB 10138ed0     animatedmesh.obj
 0003:00000ed4       ?all@?$_Locbase@H@std@@2HB 10138ed4     animatedmesh.obj
 0003:00000ed8       ?none@?$_Locbase@H@std@@2HB 10138ed8     animatedmesh.obj
 0003:00000edc       ?skipws@?$_Iosb@H@std@@2W4_Fmtflags@12@B 10138edc     animatedmesh.obj
 0003:00000ee0       ?unitbuf@?$_Iosb@H@std@@2W4_Fmtflags@12@B 10138ee0     animatedmesh.obj
 0003:00000ee4       ?uppercase@?$_Iosb@H@std@@2W4_Fmtflags@12@B 10138ee4     animatedmesh.obj
 0003:00000ee8       ?showbase@?$_Iosb@H@std@@2W4_Fmtflags@12@B 10138ee8     animatedmesh.obj
 0003:00000eec       ?showpoint@?$_Iosb@H@std@@2W4_Fmtflags@12@B 10138eec     animatedmesh.obj
 0003:00000ef0       ?showpos@?$_Iosb@H@std@@2W4_Fmtflags@12@B 10138ef0     animatedmesh.obj
 0003:00000ef4       ?left@?$_Iosb@H@std@@2W4_Fmtflags@12@B 10138ef4     animatedmesh.obj
 0003:00000ef8       ?right@?$_Iosb@H@std@@2W4_Fmtflags@12@B 10138ef8     animatedmesh.obj
 0003:00000efc       ?internal@?$_Iosb@H@std@@2W4_Fmtflags@12@B 10138efc     animatedmesh.obj
 0003:00000f00       ?dec@?$_Iosb@H@std@@2W4_Fmtflags@12@B 10138f00     animatedmesh.obj
 0003:00000f04       ?oct@?$_Iosb@H@std@@2W4_Fmtflags@12@B 10138f04     animatedmesh.obj
 0003:00000f08       ?hex@?$_Iosb@H@std@@2W4_Fmtflags@12@B 10138f08     animatedmesh.obj
 0003:00000f0c       ?scientific@?$_Iosb@H@std@@2W4_Fmtflags@12@B 10138f0c     animatedmesh.obj
 0003:00000f10       ?fixed@?$_Iosb@H@std@@2W4_Fmtflags@12@B 10138f10     animatedmesh.obj
 0003:00000f14       ?boolalpha@?$_Iosb@H@std@@2W4_Fmtflags@12@B 10138f14     animatedmesh.obj
 0003:00000f18       ?_Stdio@?$_Iosb@H@std@@2W4_Fmtflags@12@B 10138f18     animatedmesh.obj
 0003:00000f1c       ?adjustfield@?$_Iosb@H@std@@2W4_Fmtflags@12@B 10138f1c     animatedmesh.obj
 0003:00000f20       ?basefield@?$_Iosb@H@std@@2W4_Fmtflags@12@B 10138f20     animatedmesh.obj
 0003:00000f24       ?floatfield@?$_Iosb@H@std@@2W4_Fmtflags@12@B 10138f24     animatedmesh.obj
 0003:00000f28       ?goodbit@?$_Iosb@H@std@@2W4_Iostate@12@B 10138f28     animatedmesh.obj
 0003:00000f2c       ?eofbit@?$_Iosb@H@std@@2W4_Iostate@12@B 10138f2c     animatedmesh.obj
 0003:00000f30       ?failbit@?$_Iosb@H@std@@2W4_Iostate@12@B 10138f30     animatedmesh.obj
 0003:00000f34       ?badbit@?$_Iosb@H@std@@2W4_Iostate@12@B 10138f34     animatedmesh.obj
 0003:00000f38       ?_Hardfail@?$_Iosb@H@std@@2W4_Iostate@12@B 10138f38     animatedmesh.obj
 0003:00000f3c       ?in@?$_Iosb@H@std@@2W4_Openmode@12@B 10138f3c     animatedmesh.obj
 0003:00000f40       ?out@?$_Iosb@H@std@@2W4_Openmode@12@B 10138f40     animatedmesh.obj
 0003:00000f44       ?ate@?$_Iosb@H@std@@2W4_Openmode@12@B 10138f44     animatedmesh.obj
 0003:00000f48       ?app@?$_Iosb@H@std@@2W4_Openmode@12@B 10138f48     animatedmesh.obj
 0003:00000f4c       ?trunc@?$_Iosb@H@std@@2W4_Openmode@12@B 10138f4c     animatedmesh.obj
 0003:00000f50       ?_Nocreate@?$_Iosb@H@std@@2W4_Openmode@12@B 10138f50     animatedmesh.obj
 0003:00000f54       ?_Noreplace@?$_Iosb@H@std@@2W4_Openmode@12@B 10138f54     animatedmesh.obj
 0003:00000f58       ?binary@?$_Iosb@H@std@@2W4_Openmode@12@B 10138f58     animatedmesh.obj
 0003:00000f5c       ?beg@?$_Iosb@H@std@@2W4_Seekdir@12@B 10138f5c     animatedmesh.obj
 0003:00000f60       ?cur@?$_Iosb@H@std@@2W4_Seekdir@12@B 10138f60     animatedmesh.obj
 0003:00000f64       ?end@?$_Iosb@H@std@@2W4_Seekdir@12@B 10138f64     animatedmesh.obj
 0003:00000f6c       ??_7AnimationEnd@@6BIReferenceCounted@irr@@@ 10138f6c     animatedmesh.obj
 0003:00000f78       ??_7AnimationEnd@@6BIAnimationEndCallBack@scene@irr@@@ 10138f78     animatedmesh.obj
 0003:00000f80       ??_8AnimationEnd@@7B@      10138f80     animatedmesh.obj
 0003:00000f90       ??_7IReferenceCounted@irr@@6B@ 10138f90     animatedmesh.obj
 0003:00000f9c       ??_7IAnimationEndCallBack@scene@irr@@6BIReferenceCounted@2@@ 10138f9c     animatedmesh.obj
 0003:00000fa8       ??_7IAnimationEndCallBack@scene@irr@@6B012@@ 10138fa8     animatedmesh.obj
 0003:00000fb0       ??_8IAnimationEndCallBack@scene@irr@@7B@ 10138fb0     animatedmesh.obj
 0003:00000fc0       __real@3ff0000000000000    10138fc0     animatedmesh.obj
 0003:00000fd0       __real@4000000000000000    10138fd0     animatedmesh.obj
 0003:00000fe0       __real@4066800000000000    10138fe0     animatedmesh.obj
 0003:00000fec       __real@3f800000            10138fec     animatedmesh.obj
 0003:00000ff0       ??_C@_00CNPNBAHC@?$AA@     10138ff0     animatedmesh.obj
 0003:00000ff8       ??_7?$irrAllocator@D@core@irr@@6B@ 10138ff8     animatedmesh.obj
 0003:0000110c       __real@00000000            1013910c     camera.obj
 0003:00001110       __real@0000000000000000    10139110     camera.obj
 0003:00001228       ??_7CGUITTGlyph@gui@irr@@6B@ 10139228     CGUITTFont.obj
 0003:00001230       ??_C@_0M@LGCDFOEF@CGUITTGlyph?$AA@ 10139230     CGUITTFont.obj
 0003:00001240       ??_C@_0BB@IKNPODPC@TTFontGlyph?$CFd_16?$AA@ 10139240     CGUITTFont.obj
 0003:00001254       ??_C@_0O@NMPHONEK@TTFontGlyph?$CFd?$AA@ 10139254     CGUITTFont.obj
 0003:00001264       ??_C@_0L@FEMKGHPK@CGUITTFont?$AA@ 10139264     CGUITTFont.obj
 0003:00001278       ??_7CGUITTFont@gui@irr@@6BIReferenceCounted@2@@ 10139278     CGUITTFont.obj
 0003:00001284       ??_7CGUITTFont@gui@irr@@6BIGUIFont@12@@ 10139284     CGUITTFont.obj
 0003:000012ac       ??_8CGUITTFont@gui@irr@@7B@ 101392ac     CGUITTFont.obj
 0003:000012bc       ??_7IGUIFont@gui@irr@@6BIReferenceCounted@2@@ 101392bc     CGUITTFont.obj
 0003:000012c8       ??_7IGUIFont@gui@irr@@6B012@@ 101392c8     CGUITTFont.obj
 0003:000012f0       ??_8IGUIFont@gui@irr@@7B@  101392f0     CGUITTFont.obj
 0003:000012fc       ??_C@_0L@OPBEKAIK@CGUITTFace?$AA@ 101392fc     CGUITTFont.obj
 0003:00001310       ??_7CGUITTFace@gui@irr@@6B@ 10139310     CGUITTFont.obj
 0003:0000131c       ??_7?$irrAllocator@VCGUITTGlyph@gui@irr@@@core@irr@@6B@ 1013931c     CGUITTFont.obj
 0003:00001434       ??_C@_0BD@KDBKCKCG@Unknown?5wide?9char?$CB?$AA@ 10139434     conversion.obj
 0003:00001450       ??_7?$irrAllocator@_W@core@irr@@6B@ 10139450     conversion.obj
 0003:00001670       ??_7CustomGuiElement@@6BIAttributeExchangingObject@io@irr@@@ 10139670     customgui.obj
 0003:00001680       ??_7CustomGuiElement@@6BIReferenceCounted@irr@@@ 10139680     customgui.obj
 0003:0000168c       ??_7CustomGuiElement@@6B@  1013968c     customgui.obj
 0003:00001730       ??_8CustomGuiElement@@7BIAttributeExchangingObject@io@irr@@@ 10139730     customgui.obj
 0003:0000173c       ??_8CustomGuiElement@@7BIGUIElement@gui@irr@@@ 1013973c     customgui.obj
 0003:00001750       ??_7IAttributeExchangingObject@io@irr@@6BIReferenceCounted@2@@ 10139750     customgui.obj
 0003:0000175c       ??_7IAttributeExchangingObject@io@irr@@6B012@@ 1013975c     customgui.obj
 0003:00001768       ??_8IAttributeExchangingObject@io@irr@@7B@ 10139768     customgui.obj
 0003:00001774       ??_C@_0M@OKINNKCJ@IGUIElement?$AA@ 10139774     customgui.obj
 0003:00001788       ??_7IGUIElement@gui@irr@@6BIAttributeExchangingObject@io@2@@ 10139788     customgui.obj
 0003:00001798       ??_7IGUIElement@gui@irr@@6BIReferenceCounted@2@@ 10139798     customgui.obj
 0003:000017a4       ??_7IGUIElement@gui@irr@@6B@ 101397a4     customgui.obj
 0003:00001824       ??_8IGUIElement@gui@irr@@7BIAttributeExchangingObject@io@2@@ 10139824     customgui.obj
 0003:00001830       ??_8IGUIElement@gui@irr@@7B012@@ 10139830     customgui.obj
 0003:00001844       ??_7IEventReceiver@irr@@6B@ 10139844     customgui.obj
 0003:00001850       ??_C@_04HGDEFKPD@Rect?$AA@ 10139850     customgui.obj
 0003:00001858       ??_C@_09OIKKIJMI@LeftAlign?$AA@ 10139858     customgui.obj
 0003:00001864       ??_C@_0L@NCHNMGJH@RightAlign?$AA@ 10139864     customgui.obj
 0003:00001874       ??_C@_08LLOFPJJH@TopAlign?$AA@ 10139874     customgui.obj
 0003:00001880       ??_C@_0M@ECBHDKII@BottomAlign?$AA@ 10139880     customgui.obj
 0003:00001890       ??_C@_06IJJPHAFB@NoClip?$AA@ 10139890     customgui.obj
 0003:00001898       ??_C@_07HMOEOPEA@MinSize?$AA@ 10139898     customgui.obj
 0003:000018a4       ??_C@_07JKIEEAKB@MaxSize?$AA@ 101398a4     customgui.obj
 0003:000018b0       ??_C@_08KMGNHPDP@TabOrder?$AA@ 101398b0     customgui.obj
 0003:000018bc       ??_C@_08LJCPLLKB@TabGroup?$AA@ 101398bc     customgui.obj
 0003:000018c8       ??_C@_07NEBGEDJB@TabStop?$AA@ 101398c8     customgui.obj
 0003:000018d4       ??_C@_07DOAOMMKG@Enabled?$AA@ 101398d4     customgui.obj
 0003:000018e0       ??_C@_07MGEGCLJM@Visible?$AA@ 101398e0     customgui.obj
 0003:000018ec       ??_C@_07OJKFJLLK@Caption?$AA@ 101398ec     customgui.obj
 0003:000018f8       ??_C@_02HOGEDOAB@Id?$AA@   101398f8     customgui.obj
 0003:00001a08       ??_7CustomSceneNode@@6BIReferenceCounted@irr@@@ 10139a08     customscenenodes.obj
 0003:00001a14       ??_7CustomSceneNode@@6BIAttributeExchangingObject@io@irr@@@ 10139a14     customscenenodes.obj
 0003:00001b14       ??_8CustomSceneNode@@7B@   10139b14     customscenenodes.obj
 0003:00001b24       ??_7ISceneNode@scene@irr@@6BIReferenceCounted@2@@ 10139b24     customscenenodes.obj
 0003:00001b34       ??_7ISceneNode@scene@irr@@6BIAttributeExchangingObject@io@2@@ 10139b34     customscenenodes.obj
 0003:00001be8       ??_8ISceneNode@scene@irr@@7B@ 10139be8     customscenenodes.obj
 0003:00001bf4       ??_C@_0O@EILMNJNE@IsDebugObject?$AA@ 10139bf4     customscenenodes.obj
 0003:00001c04       ??_C@_0BB@OGKMJHMM@DebugDataVisible?$AA@ 10139c04     customscenenodes.obj
 0003:00001c18       ??_C@_0BB@PHAEKPCL@AutomaticCulling?$AA@ 10139c18     customscenenodes.obj
 0003:00001c2c       ??_C@_05MAGIBEFI@Scale?$AA@ 10139c2c     customscenenodes.obj
 0003:00001c34       ??_C@_08GFJPCMMD@Rotation?$AA@ 10139c34     customscenenodes.obj
 0003:00001c40       ??_C@_08GCJNLIKG@Position?$AA@ 10139c40     customscenenodes.obj
 0003:00001c4c       ??_C@_04FABLJDN@Name?$AA@  10139c4c     customscenenodes.obj
 0003:00001c54       __real@bf800000            10139c54     customscenenodes.obj
 0003:00001d5c       ??_C@_03BPNFCHDK@1?44?$AA@ 10139d5c     device.obj
 0003:00001d64       ??_7EventReceiver@@6B@     10139d64     device.obj
 0003:00001f80       ??_7ShaderConstantSetCallBack@@6BIReferenceCounted@irr@@@ 10139f80     gpu.obj
 0003:00001f8c       ??_7ShaderConstantSetCallBack@@6BIShaderConstantSetCallBack@video@irr@@@ 10139f8c     gpu.obj
 0003:00001f94       ??_8ShaderConstantSetCallBack@@7B@ 10139f94     gpu.obj
 0003:00001fa4       ??_7IShaderConstantSetCallBack@video@irr@@6BIReferenceCounted@2@@ 10139fa4     gpu.obj
 0003:00001fb0       ??_7IShaderConstantSetCallBack@video@irr@@6B012@@ 10139fb0     gpu.obj
 0003:00001fb8       ??_8IShaderConstantSetCallBack@video@irr@@7B@ 10139fb8     gpu.obj
 0003:000024ec       ??_C@_05JDCPIIGK@SMesh?$AA@ 1013a4ec     mesh.obj
 0003:000024f8       ??_7SMesh@scene@irr@@6BIReferenceCounted@2@@ 1013a4f8     mesh.obj
 0003:00002504       ??_7SMesh@scene@irr@@6BIMesh@12@@ 1013a504     mesh.obj
 0003:00002524       ??_8SMesh@scene@irr@@7B@   1013a524     mesh.obj
 0003:00002534       ??_7IMesh@scene@irr@@6BIReferenceCounted@2@@ 1013a534     mesh.obj
 0003:00002540       ??_7IMesh@scene@irr@@6B012@@ 1013a540     mesh.obj
 0003:00002560       ??_8IMesh@scene@irr@@7B@   1013a560     mesh.obj
 0003:00002570       ??_7?$irrAllocator@PAVIMeshBuffer@scene@irr@@@core@irr@@6B@ 1013a570     mesh.obj
 0003:00002580       ??_C@_0M@PMKMKOAB@SMeshBuffer?$AA@ 1013a580     mesh.obj
 0003:00002594       ??_7?$CMeshBuffer@US3DVertex@video@irr@@@scene@irr@@6BIReferenceCounted@2@@ 1013a594     mesh.obj
 0003:000025a0       ??_7?$CMeshBuffer@US3DVertex@video@irr@@@scene@irr@@6BIMeshBuffer@12@@ 1013a5a0     mesh.obj
 0003:000025e4       ??_8?$CMeshBuffer@US3DVertex@video@irr@@@scene@irr@@7B@ 1013a5e4     mesh.obj
 0003:000025f4       ??_7IMeshBuffer@scene@irr@@6BIReferenceCounted@2@@ 1013a5f4     mesh.obj
 0003:00002600       ??_7IMeshBuffer@scene@irr@@6B012@@ 1013a600     mesh.obj
 0003:00002644       ??_8IMeshBuffer@scene@irr@@7B@ 1013a644     mesh.obj
 0003:00002654       ??_7?$irrAllocator@US3DVertex@video@irr@@@core@irr@@6B@ 1013a654     mesh.obj
 0003:00002668       ??_7?$irrAllocator@G@core@irr@@6B@ 1013a668     mesh.obj
 0003:0000267c       ??_7?$CMeshBuffer@US3DVertex2TCoords@video@irr@@@scene@irr@@6BIReferenceCounted@2@@ 1013a67c     mesh.obj
 0003:00002688       ??_7?$CMeshBuffer@US3DVertex2TCoords@video@irr@@@scene@irr@@6BIMeshBuffer@12@@ 1013a688     mesh.obj
 0003:000026cc       ??_8?$CMeshBuffer@US3DVertex2TCoords@video@irr@@@scene@irr@@7B@ 1013a6cc     mesh.obj
 0003:000026dc       ??_7?$irrAllocator@US3DVertex2TCoords@video@irr@@@core@irr@@6B@ 1013a6dc     mesh.obj
 0003:000026f0       ??_7?$CMeshBuffer@US3DVertexTangents@video@irr@@@scene@irr@@6BIReferenceCounted@2@@ 1013a6f0     mesh.obj
 0003:000026fc       ??_7?$CMeshBuffer@US3DVertexTangents@video@irr@@@scene@irr@@6BIMeshBuffer@12@@ 1013a6fc     mesh.obj
 0003:00002740       ??_8?$CMeshBuffer@US3DVertexTangents@video@irr@@@scene@irr@@7B@ 1013a740     mesh.obj
 0003:00002750       ??_7?$irrAllocator@US3DVertexTangents@video@irr@@@core@irr@@6B@ 1013a750     mesh.obj
 0003:00002970       ??_7Affector@@6BIAttributeExchangingObject@io@irr@@@ 1013a970     particlescenenode.obj
 0003:00002980       ??_7Affector@@6BIReferenceCounted@irr@@@ 1013a980     particlescenenode.obj
 0003:0000298c       ??_7Affector@@6B@          1013a98c     particlescenenode.obj
 0003:000029a4       ??_8Affector@@7BIAttributeExchangingObject@io@irr@@@ 1013a9a4     particlescenenode.obj
 0003:000029b0       ??_8Affector@@7BIParticleAffector@scene@irr@@@ 1013a9b0     particlescenenode.obj
 0003:000029c4       ??_7IParticleAffector@scene@irr@@6BIAttributeExchangingObject@io@2@@ 1013a9c4     particlescenenode.obj
 0003:000029d4       ??_7IParticleAffector@scene@irr@@6BIReferenceCounted@2@@ 1013a9d4     particlescenenode.obj
 0003:000029e0       ??_7IParticleAffector@scene@irr@@6B@ 1013a9e0     particlescenenode.obj
 0003:000029f8       ??_8IParticleAffector@scene@irr@@7BIAttributeExchangingObject@io@2@@ 1013a9f8     particlescenenode.obj
 0003:00002a04       ??_8IParticleAffector@scene@irr@@7B012@@ 1013aa04     particlescenenode.obj
 0003:00002a18       ??_7Emitter@@6BIAttributeExchangingObject@io@irr@@@ 1013aa18     particlescenenode.obj
 0003:00002a28       ??_7Emitter@@6BIReferenceCounted@irr@@@ 1013aa28     particlescenenode.obj
 0003:00002a34       ??_7Emitter@@6B@           1013aa34     particlescenenode.obj
 0003:00002a74       ??_8Emitter@@7BIAttributeExchangingObject@io@irr@@@ 1013aa74     particlescenenode.obj
 0003:00002a80       ??_8Emitter@@7BIParticleEmitter@scene@irr@@@ 1013aa80     particlescenenode.obj
 0003:00002a94       ??_7IParticleEmitter@scene@irr@@6BIAttributeExchangingObject@io@2@@ 1013aa94     particlescenenode.obj
 0003:00002aa4       ??_7IParticleEmitter@scene@irr@@6BIReferenceCounted@2@@ 1013aaa4     particlescenenode.obj
 0003:00002ab0       ??_7IParticleEmitter@scene@irr@@6B@ 1013aab0     particlescenenode.obj
 0003:00002af0       ??_8IParticleEmitter@scene@irr@@7BIAttributeExchangingObject@io@2@@ 1013aaf0     particlescenenode.obj
 0003:00002afc       ??_8IParticleEmitter@scene@irr@@7B012@@ 1013aafc     particlescenenode.obj
 0003:00002b10       ??_7?$irrAllocator@USParticle@scene@irr@@@core@irr@@6B@ 1013ab10     particlescenenode.obj
 0003:00002c24       __real@42c80000            1013ac24     scenemanager.obj
 0003:00002c2c       ??_7?$irrAllocator@PAVITexture@video@irr@@@core@irr@@6B@ 1013ac2c     scenemanager.obj
 0003:00002c40       ??_7?$irrAllocator@V?$vector3d@M@core@irr@@@core@irr@@6B@ 1013ac40     scenemanager.obj
 0003:00002d58       ??_7ManagedAnimator@@6BIReferenceCounted@irr@@@ 1013ad58     scenenode.obj
 0003:00002d64       ??_7ManagedAnimator@@6BIAttributeExchangingObject@io@irr@@@ 1013ad64     scenenode.obj
 0003:00002d7c       ??_8ManagedAnimator@@7B@   1013ad7c     scenenode.obj
 0003:00002d8c       ??_7ISceneNodeAnimator@scene@irr@@6BIReferenceCounted@2@@ 1013ad8c     scenenode.obj
 0003:00002d98       ??_7ISceneNodeAnimator@scene@irr@@6BIAttributeExchangingObject@io@2@@ 1013ad98     scenenode.obj
 0003:00002db0       ??_8ISceneNodeAnimator@scene@irr@@7B@ 1013adb0     scenenode.obj
 0003:000031dc       __real@3b808081            1013b1dc     videodriver.obj
 0003:000031e0       __debug_mem_dummy          1013b1e0     freetype233MT_D:ftbase.obj
 0003:00003900       _bdf_cmap_class            1013b900     freetype233MT_D:bdf.obj
 0003:00003938       _bdf_driver_class          1013b938     freetype233MT_D:bdf.obj
 0003:00003b14       _ft_grays_raster           1013bb14     freetype233MT_D:smooth.obj
 0003:00003b2c       _ft_smooth_renderer_class  1013bb2c     freetype233MT_D:smooth.obj
 0003:00003b68       _ft_smooth_lcd_renderer_class 1013bb68     freetype233MT_D:smooth.obj
 0003:00003ba4       _ft_smooth_lcdv_renderer_class 1013bba4     freetype233MT_D:smooth.obj
 0003:00003d30       _tt_cmap0_class_rec        1013bd30     freetype233MT_D:sfnt.obj
 0003:00003d50       _tt_cmap2_class_rec        1013bd50     freetype233MT_D:sfnt.obj
 0003:00003d70       _tt_cmap4_class_rec        1013bd70     freetype233MT_D:sfnt.obj
 0003:00003d90       _tt_cmap6_class_rec        1013bd90     freetype233MT_D:sfnt.obj
 0003:00003db0       _tt_cmap8_class_rec        1013bdb0     freetype233MT_D:sfnt.obj
 0003:00003dd0       _tt_cmap10_class_rec       1013bdd0     freetype233MT_D:sfnt.obj
 0003:00003df0       _tt_cmap12_class_rec       1013bdf0     freetype233MT_D:sfnt.obj
 0003:00003fb8       _sfnt_module_class         1013bfb8     freetype233MT_D:sfnt.obj
 0003:00004268       _ft_standard_raster        1013c268     freetype233MT_D:raster.obj
 0003:00004280       _ft_raster1_renderer_class 1013c280     freetype233MT_D:raster.obj
 0003:000042bc       _ft_raster5_renderer_class 1013c2bc     freetype233MT_D:raster.obj
 0003:00004354       _pshinter_module_class     1013c354     freetype233MT_D:pshinter.obj
 0003:000053fc       _psnames_module_class      1013d3fc     freetype233MT_D:psmodule.obj
 0003:00016100       _ps_table_funcs            1014e100     freetype233MT_D:psaux.obj
 0003:00016110       _ps_parser_funcs           1014e110     freetype233MT_D:psaux.obj
 0003:00016144       _t1_builder_funcs          1014e144     freetype233MT_D:psaux.obj
 0003:00016164       _t1_decoder_funcs          1014e164     freetype233MT_D:psaux.obj
 0003:00016170       _afm_parser_funcs          1014e170     freetype233MT_D:psaux.obj
 0003:0001617c       _t1_cmap_standard_class_rec 1014e17c     freetype233MT_D:psaux.obj
 0003:00016190       _t1_cmap_expert_class_rec  1014e190     freetype233MT_D:psaux.obj
 0003:000161a4       _t1_cmap_custom_class_rec  1014e1a4     freetype233MT_D:psaux.obj
 0003:000161b8       _t1_cmap_unicode_class_rec 1014e1b8     freetype233MT_D:psaux.obj
 0003:000161cc       _t1_cmap_classes           1014e1cc     freetype233MT_D:psaux.obj
 0003:000161f8       _psaux_module_class        1014e1f8     freetype233MT_D:psaux.obj
 0003:00016618       _pcf_cmap_class            1014e618     freetype233MT_D:pcf.obj
 0003:00016650       _pcf_driver_class          1014e650     freetype233MT_D:pcf.obj
 0003:00016810       _winfnt_driver_class       1014e810     freetype233MT_D:winfnt.obj
 0003:00016bb0       _t42_driver_class          1014ebb0     freetype233MT_D:type42.obj
 0003:00016d64       _pfr_cmap_class_rec        1014ed64     freetype233MT_D:pfr.obj
 0003:00016d78       _pfr_metrics_service_rec   1014ed78     freetype233MT_D:pfr.obj
 0003:00016da0       _pfr_driver_class          1014eda0     freetype233MT_D:pfr.obj
 0003:00017560       _t1cid_driver_class        1014f560     freetype233MT_D:type1cid.obj
 0003:00017788       _cff_driver_class          1014f788     freetype233MT_D:cff.obj
 0003:000185bc       _cff_cmap_encoding_class_rec 101505bc     freetype233MT_D:cff.obj
 0003:000185d0       _cff_cmap_unicode_class_rec 101505d0     freetype233MT_D:cff.obj
 0003:000188d0       __real@40f0000000000000    101508d0     freetype233MT_D:cff.obj
 0003:00018fa0       _t1_driver_class           10150fa0     freetype233MT_D:type1.obj
 0003:000191b0       _tt_driver_class           101511b0     freetype233MT_D:truetype.obj
 0003:00019258       _tt_default_graphics_state 10151258     freetype233MT_D:truetype.obj
 0003:00019598       _af_dummy_script_class     10151598     freetype233MT_D:autofit.obj
 0003:000195d0       _af_latin_script_class     101515d0     freetype233MT_D:autofit.obj
 0003:00019698       _af_cjk_script_class       10151698     freetype233MT_D:autofit.obj
 0003:000196f4       _af_autofitter_service     101516f4     freetype233MT_D:autofit.obj
 0003:00019704       _autofit_module_class      10151704     freetype233MT_D:autofit.obj
 0003:0001aee4       _ft_bitmap_glyph_class     10152ee4     freetype233MT_D:ftglyph.obj
 0003:0001af04       _ft_outline_glyph_class    10152f04     freetype233MT_D:ftglyph.obj
 0003:0001af50       ??_7type_info@@6B@         10152f50     MSVCRTD:ti_inst.obj
 0003:0001af58       ??_C@_0BO@GNIAFIKK@Unknown?5Runtime?5Check?5Error?6?$AN?$AA@ 10152f58     MSVCRTD:error.obj
 0003:0001af7c       ??_C@_0CM@NGINOKPC@Stack?5memory?5around?5_alloca?5was?5@ 10152f7c     MSVCRTD:error.obj
 0003:0001afb0       ??_C@_0DG@HKJMLLLP@A?5local?5variable?5was?5used?5before@ 10152fb0     MSVCRTD:error.obj
 0003:0001aff0       ??_C@_0BN@FFOINMNJ@Stack?5memory?5was?5corrupted?6?$AN?$AA@ 10152ff0     MSVCRTD:error.obj
 0003:0001b018       ??_C@_0BBN@GPMLNJCF@A?5cast?5to?5a?5smaller?5data?5type?5ha@ 10153018     MSVCRTD:error.obj
 0003:0001b170       ??_C@_0NN@NGPKDKPD@The?5value?5of?5ESP?5was?5not?5properl@ 10153170     MSVCRTD:error.obj
 0003:0001b314       ??_C@_0CA@IODNCDPG@Run?9Time?5Check?5Failure?5?$CD?$CFd?5?9?5?$CFs?$AA@ 10153314     MSVCRTD:error.obj
 0003:0001b33c       ??_C@_0BE@GNBOBNCK@Unknown?5Module?5Name?$AA@ 1015333c     MSVCRTD:error.obj
 0003:0001b354       ??_C@_0BB@PFFGGCJP@Unknown?5Filename?$AA@ 10153354     MSVCRTD:error.obj
 0003:0001b368       ??_C@_1EA@NFKNIFJP@?$AAR?$AAu?$AAn?$AA?9?$AAT?$AAi?$AAm?$AAe?$AA?5?$AAC?$AAh?$AAe?$AAc?$AAk?$AA?5?$AAF?$AAa?$AAi?$AAl?$AAu?$AAr?$AAe?$AA?5?$AA?$CD?$AA?$CF?$AAd?$AA?5?$AA?9?$AA?5?$AA?$CF?$AAs?$AA?$AA@ 10153368     MSVCRTD:error.obj
 0003:0001b3b8       ??_C@_1GM@OLMCBDMB@?$AAR?$AAu?$AAn?$AAt?$AAi?$AAm?$AAe?$AA?5?$AAC?$AAh?$AAe?$AAc?$AAk?$AA?5?$AAE?$AAr?$AAr?$AAo?$AAr?$AA?4?$AA?6?$AA?$AN?$AA?5?$AAU?$AAn?$AAa?$AAb?$AAl?$AAe?$AA?5?$AAt?$AAo@ 101533b8     MSVCRTD:error.obj
 0003:0001b43c       ??_C@_0CG@IAFNJNEE@Stack?5corrupted?5near?5unknown?5var@ 1015343c     MSVCRTD:error.obj
 0003:0001b470       ??_C@_0EJ@LJKNEOLN@Stack?5area?5around?5_alloca?5memory@ 10153470     MSVCRTD:error.obj
 0003:0001b4c8       ??_C@_08KJEDNCKC@?$CFs?$CFs?$CFs?$CFs?$AA@ 101534c8     MSVCRTD:error.obj
 0003:0001b4d4       ??_C@_02LLMPMKNF@?$DO?5?$AA@ 101534d4     MSVCRTD:error.obj
 0003:0001b4d8       ??_C@_01EEMJAFIK@?6?$AA@   101534d8     MSVCRTD:error.obj
 0003:0001b4dc       ??_C@_0BC@KIBAILCI@?$CFs?$CFs?$CFp?$CFs?$CFld?$CFs?$CFd?$CFs?$AA@ 101534dc     MSVCRTD:error.obj
 0003:0001b4f8       ??_C@_0EI@CLEPFNGI@Stack?5area?5around?5_alloca?5memory@ 101534f8     MSVCRTD:error.obj
 0003:0001b550       ??_C@_0N@MHFFIMFG@?6Address?3?50x?$AA@ 10153550     MSVCRTD:error.obj
 0003:0001b560       ??_C@_07DFDJCKFN@?6Size?3?5?$AA@ 10153560     MSVCRTD:error.obj
 0003:0001b56c       ??_C@_0CK@DKGBICFE@?6Allocation?5number?5within?5this?5f@ 1015356c     MSVCRTD:error.obj
 0003:0001b5a0       ??_C@_08OMAHNMHJ@?6Data?3?5?$DM?$AA@ 101535a0     MSVCRTD:error.obj
 0003:0001b5ac       ??_C@_09FOPFMPEJ@wsprintfA?$AA@ 101535ac     MSVCRTD:error.obj
 0003:0001b5b8       ??_C@_0L@GMPLCCII@user32?4dll?$AA@ 101535b8     MSVCRTD:error.obj
 0003:0001b5c8       ??_C@_05MKKEDADM@?$CF?42X?5?$AA@ 101535c8     MSVCRTD:error.obj
 0003:0001b5d0       ??_C@_0DA@BEGFPCGG@A?5variable?5is?5being?5used?5without@ 101535d0     MSVCRTD:error.obj
 0003:0001b60c       __pDefaultRawDllMain       1015360c     MSVCRTD:crtdll.obj
 0003:0001b60c       __pRawDllMain              1015360c     MSVCRTD:crtdll.obj
 0003:0001b610       ??_C@_08EIBOPINA@crtdll?4c?$AA@ 10153610     MSVCRTD:crtdll.obj
 0003:0001b61c       ??_C@_0BP@OGBCLIBO@Stack?5around?5_alloca?5corrupted?$AA@ 1015361c     MSVCRTD:userapi.obj
 0003:0001b644       ??_C@_0CK@CNLNOEPB@Local?5variable?5used?5before?5initi@ 10153644     MSVCRTD:userapi.obj
 0003:0001b678       ??_C@_0BI@CIGMDCBH@Stack?5memory?5corruption?$AA@ 10153678     MSVCRTD:userapi.obj
 0003:0001b694       ??_C@_0CK@FEGOIOPB@Cast?5to?5smaller?5type?5causing?5los@ 10153694     MSVCRTD:userapi.obj
 0003:0001b6c8       ??_C@_0BJ@HEGAHDFO@Stack?5pointer?5corruption?$AA@ 101536c8     MSVCRTD:userapi.obj
 0003:0001b6f4       ??_C@_0M@EKFFODEC@MSPDB80?4DLL?$AA@ 101536f4     MSVCRTD:pdblkup.obj
 0003:0001b704       ??_C@_01KDCPPGHE@r?$AA@    10153704     MSVCRTD:pdblkup.obj
 0003:0001b708       ??_C@_0BB@KCIACLNC@PDBOpenValidate5?$AA@ 10153708     MSVCRTD:pdblkup.obj
 0003:0001b71c       ??_C@_0BF@BMIHBHCA@EnvironmentDirectory?$AA@ 1015371c     MSVCRTD:pdblkup.obj
 0003:0001b738       ??_C@_0CN@EAEOKKOC@SOFTWARE?2Microsoft?2VisualStudio?2@ 10153738     MSVCRTD:pdblkup.obj
 0003:0001b770       ??_C@_0M@HLOHPNFA@RegCloseKey?$AA@ 10153770     MSVCRTD:pdblkup.obj
 0003:0001b780       ??_C@_0BB@HHEIPGME@RegQueryValueExA?$AA@ 10153780     MSVCRTD:pdblkup.obj
 0003:0001b794       ??_C@_0O@DCOGKJGG@RegOpenKeyExA?$AA@ 10153794     MSVCRTD:pdblkup.obj
 0003:0001b7a4       ??_C@_0N@JJPEKNFO@ADVAPI32?4DLL?$AA@ 101537a4     MSVCRTD:pdblkup.obj
 0003:0001b7b4       ?ProcessDetach@NativeDll@<CrtImplementationDetails>@@0IB 101537b4     MSVCRTD:tncleanup.obj
 0003:0001b7b8       ?ProcessAttach@NativeDll@<CrtImplementationDetails>@@0IB 101537b8     MSVCRTD:tncleanup.obj
 0003:0001b7bc       ?ThreadAttach@NativeDll@<CrtImplementationDetails>@@0IB 101537bc     MSVCRTD:tncleanup.obj
 0003:0001b7c0       ?ThreadDetach@NativeDll@<CrtImplementationDetails>@@0IB 101537c0     MSVCRTD:tncleanup.obj
 0003:0001b7c4       ?ProcessVerifier@NativeDll@<CrtImplementationDetails>@@0IB 101537c4     MSVCRTD:tncleanup.obj
 0003:0001b7c8       ??_C@_0OH@IHEJDJAH@Microsoft?5Visual?5C?$CL?$CL?5Runtime?5Lib@ 101537c8     MSVCRTD:gs_support.obj
 0003:0001bc78       ??_R4AnimationEnd@@6BIAnimationEndCallBack@scene@irr@@@ 10153c78     animatedmesh.obj
 0003:0001bc90       ??_R3AnimationEnd@@8       10153c90     animatedmesh.obj
 0003:0001bca4       ??_R2AnimationEnd@@8       10153ca4     animatedmesh.obj
 0003:0001bcb4       ??_R1A@?0A@EA@AnimationEnd@@8 10153cb4     animatedmesh.obj
 0003:0001bcd8       ??_R1A@?0A@EA@IAnimationEndCallBack@scene@irr@@8 10153cd8     animatedmesh.obj
 0003:0001bcfc       ??_R3IAnimationEndCallBack@scene@irr@@8 10153cfc     animatedmesh.obj
 0003:0001bd10       ??_R2IAnimationEndCallBack@scene@irr@@8 10153d10     animatedmesh.obj
 0003:0001bd1c       ??_R1A@33FA@IReferenceCounted@irr@@8 10153d1c     animatedmesh.obj
 0003:0001bd40       ??_R3IReferenceCounted@irr@@8 10153d40     animatedmesh.obj
 0003:0001bd54       ??_R2IReferenceCounted@irr@@8 10153d54     animatedmesh.obj
 0003:0001bd5c       ??_R1A@?0A@EA@IReferenceCounted@irr@@8 10153d5c     animatedmesh.obj
 0003:0001bd80       ??_R4AnimationEnd@@6BIReferenceCounted@irr@@@ 10153d80     animatedmesh.obj
 0003:0001bd98       ??_R4IReferenceCounted@irr@@6B@ 10153d98     animatedmesh.obj
 0003:0001bdb0       ??_R4IAnimationEndCallBack@scene@irr@@6B012@@ 10153db0     animatedmesh.obj
 0003:0001bdc8       ??_R4IAnimationEndCallBack@scene@irr@@6BIReferenceCounted@2@@ 10153dc8     animatedmesh.obj
 0003:0001bde0       ??_R4?$irrAllocator@D@core@irr@@6B@ 10153de0     animatedmesh.obj
 0003:0001bdf8       ??_R3?$irrAllocator@D@core@irr@@8 10153df8     animatedmesh.obj
 0003:0001be0c       ??_R2?$irrAllocator@D@core@irr@@8 10153e0c     animatedmesh.obj
 0003:0001be14       ??_R1A@?0A@EA@?$irrAllocator@D@core@irr@@8 10153e14     animatedmesh.obj
 0003:0001be38       ??_R4CGUITTGlyph@gui@irr@@6B@ 10153e38     CGUITTFont.obj
 0003:0001be50       ??_R3CGUITTGlyph@gui@irr@@8 10153e50     CGUITTFont.obj
 0003:0001be64       ??_R2CGUITTGlyph@gui@irr@@8 10153e64     CGUITTFont.obj
 0003:0001be70       ??_R1A@?0A@EA@CGUITTGlyph@gui@irr@@8 10153e70     CGUITTFont.obj
 0003:0001be94       ??_R4CGUITTFont@gui@irr@@6BIGUIFont@12@@ 10153e94     CGUITTFont.obj
 0003:0001beac       ??_R3CGUITTFont@gui@irr@@8 10153eac     CGUITTFont.obj
 0003:0001bec0       ??_R2CGUITTFont@gui@irr@@8 10153ec0     CGUITTFont.obj
 0003:0001bed0       ??_R1A@?0A@EA@CGUITTFont@gui@irr@@8 10153ed0     CGUITTFont.obj
 0003:0001bef4       ??_R1A@?0A@EA@IGUIFont@gui@irr@@8 10153ef4     CGUITTFont.obj
 0003:0001bf18       ??_R3IGUIFont@gui@irr@@8   10153f18     CGUITTFont.obj
 0003:0001bf2c       ??_R2IGUIFont@gui@irr@@8   10153f2c     CGUITTFont.obj
 0003:0001bf38       ??_R4CGUITTFont@gui@irr@@6BIReferenceCounted@2@@ 10153f38     CGUITTFont.obj
 0003:0001bf50       ??_R4IGUIFont@gui@irr@@6B012@@ 10153f50     CGUITTFont.obj
 0003:0001bf68       ??_R4IGUIFont@gui@irr@@6BIReferenceCounted@2@@ 10153f68     CGUITTFont.obj
 0003:0001bf80       ??_R4CGUITTFace@gui@irr@@6B@ 10153f80     CGUITTFont.obj
 0003:0001bf98       ??_R3CGUITTFace@gui@irr@@8 10153f98     CGUITTFont.obj
 0003:0001bfac       ??_R2CGUITTFace@gui@irr@@8 10153fac     CGUITTFont.obj
 0003:0001bfb8       ??_R1A@?0A@EA@CGUITTFace@gui@irr@@8 10153fb8     CGUITTFont.obj
 0003:0001bfdc       ??_R4?$irrAllocator@VCGUITTGlyph@gui@irr@@@core@irr@@6B@ 10153fdc     CGUITTFont.obj
 0003:0001bff4       ??_R3?$irrAllocator@VCGUITTGlyph@gui@irr@@@core@irr@@8 10153ff4     CGUITTFont.obj
 0003:0001c008       ??_R2?$irrAllocator@VCGUITTGlyph@gui@irr@@@core@irr@@8 10154008     CGUITTFont.obj
 0003:0001c010       ??_R1A@?0A@EA@?$irrAllocator@VCGUITTGlyph@gui@irr@@@core@irr@@8 10154010     CGUITTFont.obj
 0003:0001c034       ??_R4?$irrAllocator@_W@core@irr@@6B@ 10154034     conversion.obj
 0003:0001c04c       ??_R3?$irrAllocator@_W@core@irr@@8 1015404c     conversion.obj
 0003:0001c060       ??_R2?$irrAllocator@_W@core@irr@@8 10154060     conversion.obj
 0003:0001c068       ??_R1A@?0A@EA@?$irrAllocator@_W@core@irr@@8 10154068     conversion.obj
 0003:0001c08c       ??_R4CustomGuiElement@@6B@ 1015408c     customgui.obj
 0003:0001c0a4       ??_R3CustomGuiElement@@8   101540a4     customgui.obj
 0003:0001c0b8       ??_R2CustomGuiElement@@8   101540b8     customgui.obj
 0003:0001c0d4       ??_R1A@?0A@EA@CustomGuiElement@@8 101540d4     customgui.obj
 0003:0001c0f8       ??_R1A@?0A@EA@IGUIElement@gui@irr@@8 101540f8     customgui.obj
 0003:0001c11c       ??_R3IGUIElement@gui@irr@@8 1015411c     customgui.obj
 0003:0001c130       ??_R2IGUIElement@gui@irr@@8 10154130     customgui.obj
 0003:0001c144       ??_R1A@37FA@IAttributeExchangingObject@io@irr@@8 10154144     customgui.obj
 0003:0001c168       ??_R3IAttributeExchangingObject@io@irr@@8 10154168     customgui.obj
 0003:0001c17c       ??_R2IAttributeExchangingObject@io@irr@@8 1015417c     customgui.obj
 0003:0001c188       ??_R1A@?0A@EA@IAttributeExchangingObject@io@irr@@8 10154188     customgui.obj
 0003:0001c1ac       ??_R1A@?0A@EA@IEventReceiver@irr@@8 101541ac     customgui.obj
 0003:0001c1d0       ??_R3IEventReceiver@irr@@8 101541d0     customgui.obj
 0003:0001c1e4       ??_R2IEventReceiver@irr@@8 101541e4     customgui.obj
 0003:0001c1ec       ??_R4CustomGuiElement@@6BIReferenceCounted@irr@@@ 101541ec     customgui.obj
 0003:0001c204       ??_R4CustomGuiElement@@6BIAttributeExchangingObject@io@irr@@@ 10154204     customgui.obj
 0003:0001c21c       ??_R4IAttributeExchangingObject@io@irr@@6B012@@ 1015421c     customgui.obj
 0003:0001c234       ??_R4IAttributeExchangingObject@io@irr@@6BIReferenceCounted@2@@ 10154234     customgui.obj
 0003:0001c24c       ??_R4IGUIElement@gui@irr@@6B@ 1015424c     customgui.obj
 0003:0001c264       ??_R4IGUIElement@gui@irr@@6BIReferenceCounted@2@@ 10154264     customgui.obj
 0003:0001c27c       ??_R4IGUIElement@gui@irr@@6BIAttributeExchangingObject@io@2@@ 1015427c     customgui.obj
 0003:0001c294       ??_R4IEventReceiver@irr@@6B@ 10154294     customgui.obj
 0003:0001c2ac       ??_R4CustomSceneNode@@6BIAttributeExchangingObject@io@irr@@@ 101542ac     customscenenodes.obj
 0003:0001c2c4       ??_R3CustomSceneNode@@8    101542c4     customscenenodes.obj
 0003:0001c2d8       ??_R2CustomSceneNode@@8    101542d8     customscenenodes.obj
 0003:0001c2ec       ??_R1A@?0A@EA@CustomSceneNode@@8 101542ec     customscenenodes.obj
 0003:0001c310       ??_R1A@?0A@EA@ISceneNode@scene@irr@@8 10154310     customscenenodes.obj
 0003:0001c334       ??_R3ISceneNode@scene@irr@@8 10154334     customscenenodes.obj
 0003:0001c348       ??_R2ISceneNode@scene@irr@@8 10154348     customscenenodes.obj
 0003:0001c358       ??_R4CustomSceneNode@@6BIReferenceCounted@irr@@@ 10154358     customscenenodes.obj
 0003:0001c370       ??_R4ISceneNode@scene@irr@@6BIAttributeExchangingObject@io@2@@ 10154370     customscenenodes.obj
 0003:0001c388       ??_R4ISceneNode@scene@irr@@6BIReferenceCounted@2@@ 10154388     customscenenodes.obj
 0003:0001c3a0       ??_R4EventReceiver@@6B@    101543a0     device.obj
 0003:0001c3b8       ??_R3EventReceiver@@8      101543b8     device.obj
 0003:0001c3cc       ??_R2EventReceiver@@8      101543cc     device.obj
 0003:0001c3d8       ??_R1A@?0A@EA@EventReceiver@@8 101543d8     device.obj
 0003:0001c3fc       ??_R4ShaderConstantSetCallBack@@6BIShaderConstantSetCallBack@video@irr@@@ 101543fc     gpu.obj
 0003:0001c414       ??_R3ShaderConstantSetCallBack@@8 10154414     gpu.obj
 0003:0001c428       ??_R2ShaderConstantSetCallBack@@8 10154428     gpu.obj
 0003:0001c438       ??_R1A@?0A@EA@ShaderConstantSetCallBack@@8 10154438     gpu.obj
 0003:0001c45c       ??_R1A@?0A@EA@IShaderConstantSetCallBack@video@irr@@8 1015445c     gpu.obj
 0003:0001c480       ??_R3IShaderConstantSetCallBack@video@irr@@8 10154480     gpu.obj
 0003:0001c494       ??_R2IShaderConstantSetCallBack@video@irr@@8 10154494     gpu.obj
 0003:0001c4a0       ??_R4ShaderConstantSetCallBack@@6BIReferenceCounted@irr@@@ 101544a0     gpu.obj
 0003:0001c4b8       ??_R4IShaderConstantSetCallBack@video@irr@@6B012@@ 101544b8     gpu.obj
 0003:0001c4d0       ??_R4IShaderConstantSetCallBack@video@irr@@6BIReferenceCounted@2@@ 101544d0     gpu.obj
 0003:0001c4e8       ??_R4SMesh@scene@irr@@6BIMesh@12@@ 101544e8     mesh.obj
 0003:0001c500       ??_R3SMesh@scene@irr@@8    10154500     mesh.obj
 0003:0001c514       ??_R2SMesh@scene@irr@@8    10154514     mesh.obj
 0003:0001c524       ??_R1A@?0A@EA@SMesh@scene@irr@@8 10154524     mesh.obj
 0003:0001c548       ??_R1A@?0A@EA@IMesh@scene@irr@@8 10154548     mesh.obj
 0003:0001c56c       ??_R3IMesh@scene@irr@@8    1015456c     mesh.obj
 0003:0001c580       ??_R2IMesh@scene@irr@@8    10154580     mesh.obj
 0003:0001c58c       ??_R4SMesh@scene@irr@@6BIReferenceCounted@2@@ 1015458c     mesh.obj
 0003:0001c5a4       ??_R4IMesh@scene@irr@@6B012@@ 101545a4     mesh.obj
 0003:0001c5bc       ??_R4IMesh@scene@irr@@6BIReferenceCounted@2@@ 101545bc     mesh.obj
 0003:0001c5d4       ??_R4?$irrAllocator@PAVIMeshBuffer@scene@irr@@@core@irr@@6B@ 101545d4     mesh.obj
 0003:0001c5ec       ??_R3?$irrAllocator@PAVIMeshBuffer@scene@irr@@@core@irr@@8 101545ec     mesh.obj
 0003:0001c600       ??_R2?$irrAllocator@PAVIMeshBuffer@scene@irr@@@core@irr@@8 10154600     mesh.obj
 0003:0001c608       ??_R1A@?0A@EA@?$irrAllocator@PAVIMeshBuffer@scene@irr@@@core@irr@@8 10154608     mesh.obj
 0003:0001c62c       ??_R4?$CMeshBuffer@US3DVertex@video@irr@@@scene@irr@@6BIMeshBuffer@12@@ 1015462c     mesh.obj
 0003:0001c644       ??_R3?$CMeshBuffer@US3DVertex@video@irr@@@scene@irr@@8 10154644     mesh.obj
 0003:0001c658       ??_R2?$CMeshBuffer@US3DVertex@video@irr@@@scene@irr@@8 10154658     mesh.obj
 0003:0001c668       ??_R1A@?0A@EA@?$CMeshBuffer@US3DVertex@video@irr@@@scene@irr@@8 10154668     mesh.obj
 0003:0001c68c       ??_R1A@?0A@EA@IMeshBuffer@scene@irr@@8 1015468c     mesh.obj
 0003:0001c6b0       ??_R3IMeshBuffer@scene@irr@@8 101546b0     mesh.obj
 0003:0001c6c4       ??_R2IMeshBuffer@scene@irr@@8 101546c4     mesh.obj
 0003:0001c6d0       ??_R4?$CMeshBuffer@US3DVertex@video@irr@@@scene@irr@@6BIReferenceCounted@2@@ 101546d0     mesh.obj
 0003:0001c6e8       ??_R4IMeshBuffer@scene@irr@@6B012@@ 101546e8     mesh.obj
 0003:0001c700       ??_R4IMeshBuffer@scene@irr@@6BIReferenceCounted@2@@ 10154700     mesh.obj
 0003:0001c718       ??_R4?$irrAllocator@US3DVertex@video@irr@@@core@irr@@6B@ 10154718     mesh.obj
 0003:0001c730       ??_R3?$irrAllocator@US3DVertex@video@irr@@@core@irr@@8 10154730     mesh.obj
 0003:0001c744       ??_R2?$irrAllocator@US3DVertex@video@irr@@@core@irr@@8 10154744     mesh.obj
 0003:0001c74c       ??_R1A@?0A@EA@?$irrAllocator@US3DVertex@video@irr@@@core@irr@@8 1015474c     mesh.obj
 0003:0001c770       ??_R4?$irrAllocator@G@core@irr@@6B@ 10154770     mesh.obj
 0003:0001c788       ??_R3?$irrAllocator@G@core@irr@@8 10154788     mesh.obj
 0003:0001c79c       ??_R2?$irrAllocator@G@core@irr@@8 1015479c     mesh.obj
 0003:0001c7a4       ??_R1A@?0A@EA@?$irrAllocator@G@core@irr@@8 101547a4     mesh.obj
 0003:0001c7c8       ??_R4?$CMeshBuffer@US3DVertex2TCoords@video@irr@@@scene@irr@@6BIMeshBuffer@12@@ 101547c8     mesh.obj
 0003:0001c7e0       ??_R3?$CMeshBuffer@US3DVertex2TCoords@video@irr@@@scene@irr@@8 101547e0     mesh.obj
 0003:0001c7f4       ??_R2?$CMeshBuffer@US3DVertex2TCoords@video@irr@@@scene@irr@@8 101547f4     mesh.obj
 0003:0001c804       ??_R1A@?0A@EA@?$CMeshBuffer@US3DVertex2TCoords@video@irr@@@scene@irr@@8 10154804     mesh.obj
 0003:0001c828       ??_R4?$CMeshBuffer@US3DVertex2TCoords@video@irr@@@scene@irr@@6BIReferenceCounted@2@@ 10154828     mesh.obj
 0003:0001c840       ??_R4?$irrAllocator@US3DVertex2TCoords@video@irr@@@core@irr@@6B@ 10154840     mesh.obj
 0003:0001c858       ??_R3?$irrAllocator@US3DVertex2TCoords@video@irr@@@core@irr@@8 10154858     mesh.obj
 0003:0001c86c       ??_R2?$irrAllocator@US3DVertex2TCoords@video@irr@@@core@irr@@8 1015486c     mesh.obj
 0003:0001c874       ??_R1A@?0A@EA@?$irrAllocator@US3DVertex2TCoords@video@irr@@@core@irr@@8 10154874     mesh.obj
 0003:0001c898       ??_R4?$CMeshBuffer@US3DVertexTangents@video@irr@@@scene@irr@@6BIMeshBuffer@12@@ 10154898     mesh.obj
 0003:0001c8b0       ??_R3?$CMeshBuffer@US3DVertexTangents@video@irr@@@scene@irr@@8 101548b0     mesh.obj
 0003:0001c8c4       ??_R2?$CMeshBuffer@US3DVertexTangents@video@irr@@@scene@irr@@8 101548c4     mesh.obj
 0003:0001c8d4       ??_R1A@?0A@EA@?$CMeshBuffer@US3DVertexTangents@video@irr@@@scene@irr@@8 101548d4     mesh.obj
 0003:0001c8f8       ??_R4?$CMeshBuffer@US3DVertexTangents@video@irr@@@scene@irr@@6BIReferenceCounted@2@@ 101548f8     mesh.obj
 0003:0001c910       ??_R4?$irrAllocator@US3DVertexTangents@video@irr@@@core@irr@@6B@ 10154910     mesh.obj
 0003:0001c928       ??_R3?$irrAllocator@US3DVertexTangents@video@irr@@@core@irr@@8 10154928     mesh.obj
 0003:0001c93c       ??_R2?$irrAllocator@US3DVertexTangents@video@irr@@@core@irr@@8 1015493c     mesh.obj
 0003:0001c944       ??_R1A@?0A@EA@?$irrAllocator@US3DVertexTangents@video@irr@@@core@irr@@8 10154944     mesh.obj
 0003:0001c968       ??_R4Affector@@6B@         10154968     particlescenenode.obj
 0003:0001c980       ??_R3Affector@@8           10154980     particlescenenode.obj
 0003:0001c994       ??_R2Affector@@8           10154994     particlescenenode.obj
 0003:0001c9a8       ??_R1A@?0A@EA@Affector@@8  101549a8     particlescenenode.obj
 0003:0001c9cc       ??_R1A@?0A@EA@IParticleAffector@scene@irr@@8 101549cc     particlescenenode.obj
 0003:0001c9f0       ??_R3IParticleAffector@scene@irr@@8 101549f0     particlescenenode.obj
 0003:0001ca04       ??_R2IParticleAffector@scene@irr@@8 10154a04     particlescenenode.obj
 0003:0001ca14       ??_R4Affector@@6BIReferenceCounted@irr@@@ 10154a14     particlescenenode.obj
 0003:0001ca2c       ??_R4Affector@@6BIAttributeExchangingObject@io@irr@@@ 10154a2c     particlescenenode.obj
 0003:0001ca44       ??_R4IParticleAffector@scene@irr@@6B@ 10154a44     particlescenenode.obj
 0003:0001ca5c       ??_R4IParticleAffector@scene@irr@@6BIReferenceCounted@2@@ 10154a5c     particlescenenode.obj
 0003:0001ca74       ??_R4IParticleAffector@scene@irr@@6BIAttributeExchangingObject@io@2@@ 10154a74     particlescenenode.obj
 0003:0001ca8c       ??_R4Emitter@@6B@          10154a8c     particlescenenode.obj
 0003:0001caa4       ??_R3Emitter@@8            10154aa4     particlescenenode.obj
 0003:0001cab8       ??_R2Emitter@@8            10154ab8     particlescenenode.obj
 0003:0001cacc       ??_R1A@?0A@EA@Emitter@@8   10154acc     particlescenenode.obj
 0003:0001caf0       ??_R1A@?0A@EA@IParticleEmitter@scene@irr@@8 10154af0     particlescenenode.obj
 0003:0001cb14       ??_R3IParticleEmitter@scene@irr@@8 10154b14     particlescenenode.obj
 0003:0001cb28       ??_R2IParticleEmitter@scene@irr@@8 10154b28     particlescenenode.obj
 0003:0001cb38       ??_R4Emitter@@6BIReferenceCounted@irr@@@ 10154b38     particlescenenode.obj
 0003:0001cb50       ??_R4Emitter@@6BIAttributeExchangingObject@io@irr@@@ 10154b50     particlescenenode.obj
 0003:0001cb68       ??_R4IParticleEmitter@scene@irr@@6B@ 10154b68     particlescenenode.obj
 0003:0001cb80       ??_R4IParticleEmitter@scene@irr@@6BIReferenceCounted@2@@ 10154b80     particlescenenode.obj
 0003:0001cb98       ??_R4IParticleEmitter@scene@irr@@6BIAttributeExchangingObject@io@2@@ 10154b98     particlescenenode.obj
 0003:0001cbb0       ??_R4?$irrAllocator@USParticle@scene@irr@@@core@irr@@6B@ 10154bb0     particlescenenode.obj
 0003:0001cbc8       ??_R3?$irrAllocator@USParticle@scene@irr@@@core@irr@@8 10154bc8     particlescenenode.obj
 0003:0001cbdc       ??_R2?$irrAllocator@USParticle@scene@irr@@@core@irr@@8 10154bdc     particlescenenode.obj
 0003:0001cbe4       ??_R1A@?0A@EA@?$irrAllocator@USParticle@scene@irr@@@core@irr@@8 10154be4     particlescenenode.obj
 0003:0001cc08       ??_R4?$irrAllocator@PAVITexture@video@irr@@@core@irr@@6B@ 10154c08     scenemanager.obj
 0003:0001cc20       ??_R3?$irrAllocator@PAVITexture@video@irr@@@core@irr@@8 10154c20     scenemanager.obj
 0003:0001cc34       ??_R2?$irrAllocator@PAVITexture@video@irr@@@core@irr@@8 10154c34     scenemanager.obj
 0003:0001cc3c       ??_R1A@?0A@EA@?$irrAllocator@PAVITexture@video@irr@@@core@irr@@8 10154c3c     scenemanager.obj
 0003:0001cc60       ??_R4?$irrAllocator@V?$vector3d@M@core@irr@@@core@irr@@6B@ 10154c60     scenemanager.obj
 0003:0001cc78       ??_R3?$irrAllocator@V?$vector3d@M@core@irr@@@core@irr@@8 10154c78     scenemanager.obj
 0003:0001cc8c       ??_R2?$irrAllocator@V?$vector3d@M@core@irr@@@core@irr@@8 10154c8c     scenemanager.obj
 0003:0001cc94       ??_R1A@?0A@EA@?$irrAllocator@V?$vector3d@M@core@irr@@@core@irr@@8 10154c94     scenemanager.obj
 0003:0001ccb8       ??_R4ManagedAnimator@@6BIAttributeExchangingObject@io@irr@@@ 10154cb8     scenenode.obj
 0003:0001ccd0       ??_R3ManagedAnimator@@8    10154cd0     scenenode.obj
 0003:0001cce4       ??_R2ManagedAnimator@@8    10154ce4     scenenode.obj
 0003:0001ccf8       ??_R1A@?0A@EA@ManagedAnimator@@8 10154cf8     scenenode.obj
 0003:0001cd1c       ??_R1A@?0A@EN@ISceneNodeAnimator@scene@irr@@8 10154d1c     scenenode.obj
 0003:0001cd40       ??_R3ISceneNodeAnimator@scene@irr@@8 10154d40     scenenode.obj
 0003:0001cd54       ??_R2ISceneNodeAnimator@scene@irr@@8 10154d54     scenenode.obj
 0003:0001cd64       ??_R1A@?0A@EA@ISceneNodeAnimator@scene@irr@@8 10154d64     scenenode.obj
 0003:0001cd88       ??_R1A@?0A@EJ@IAttributeExchangingObject@io@irr@@8 10154d88     scenenode.obj
 0003:0001cdac       ??_R1A@33FJ@IReferenceCounted@irr@@8 10154dac     scenenode.obj
 0003:0001cdd0       ??_R4ManagedAnimator@@6BIReferenceCounted@irr@@@ 10154dd0     scenenode.obj
 0003:0001cde8       ??_R4ISceneNodeAnimator@scene@irr@@6BIAttributeExchangingObject@io@2@@ 10154de8     scenenode.obj
 0003:0001ce00       ??_R4ISceneNodeAnimator@scene@irr@@6BIReferenceCounted@2@@ 10154e00     scenenode.obj
 0003:0001ce18       ??_R4type_info@@6B@        10154e18     MSVCRTD:ti_inst.obj
 0003:0001ce30       ??_R3type_info@@8          10154e30     MSVCRTD:ti_inst.obj
 0003:0001ce44       ??_R2type_info@@8          10154e44     MSVCRTD:ti_inst.obj
 0003:0001ce4c       ??_R1A@?0A@EA@type_info@@8 10154e4c     MSVCRTD:ti_inst.obj
 0003:0001cfd0       ___rtc_iaa                 10154fd0     MSVCRTD:initsect.obj
 0003:0001d24c       ___rtc_izz                 1015524c     MSVCRTD:initsect.obj
 0003:0001d350       ___rtc_taa                 10155350     MSVCRTD:initsect.obj
 0003:0001d5cc       ___rtc_tzz                 101555cc     MSVCRTD:initsect.obj
 0004:00000058       ??_R0?AVAnimationEnd@@@8   1015e058     animatedmesh.obj
 0004:00000078       ??_R0?AVIAnimationEndCallBack@scene@irr@@@8 1015e078     animatedmesh.obj
 0004:000000b0       ??_R0?AVIReferenceCounted@irr@@@8 1015e0b0     animatedmesh.obj
 0004:000000dc       ??_R0?AV?$irrAllocator@D@core@irr@@@8 1015e0dc     animatedmesh.obj
 0004:000001c0       ??_R0?AVCGUITTGlyph@gui@irr@@@8 1015e1c0     CGUITTFont.obj
 0004:000001e8       ??_R0?AVCGUITTFont@gui@irr@@@8 1015e1e8     CGUITTFont.obj
 0004:00000210       ??_R0?AVIGUIFont@gui@irr@@@8 1015e210     CGUITTFont.obj
 0004:00000238       ??_R0?AVCGUITTFace@gui@irr@@@8 1015e238     CGUITTFont.obj
 0004:00000260       ??_R0?AV?$irrAllocator@VCGUITTGlyph@gui@irr@@@core@irr@@@8 1015e260     CGUITTFont.obj
 0004:00000308       ??_R0?AV?$irrAllocator@_W@core@irr@@@8 1015e308     conversion.obj
 0004:000003f0       ??_R0?AVCustomGuiElement@@@8 1015e3f0     customgui.obj
 0004:00000418       ??_R0?AVIGUIElement@gui@irr@@@8 1015e418     customgui.obj
 0004:00000440       ??_R0?AVIAttributeExchangingObject@io@irr@@@8 1015e440     customgui.obj
 0004:0000047c       ??_R0?AVIEventReceiver@irr@@@8 1015e47c     customgui.obj
 0004:00000500       ??_R0?AVCustomSceneNode@@@8 1015e500     customscenenodes.obj
 0004:00000524       ??_R0?AVISceneNode@scene@irr@@@8 1015e524     customscenenodes.obj
 0004:000005a8       ??_R0?AVEventReceiver@@@8  1015e5a8     device.obj
 0004:00000680       ??_R0?AVShaderConstantSetCallBack@@@8 1015e680     gpu.obj
 0004:000006b0       ??_R0?AVIShaderConstantSetCallBack@video@irr@@@8 1015e6b0     gpu.obj
 0004:000008a8       ??_R0?AUSMesh@scene@irr@@@8 1015e8a8     mesh.obj
 0004:000008cc       ??_R0?AVIMesh@scene@irr@@@8 1015e8cc     mesh.obj
 0004:000008f0       ??_R0?AV?$irrAllocator@PAVIMeshBuffer@scene@irr@@@core@irr@@@8 1015e8f0     mesh.obj
 0004:00000940       ??_R0?AV?$CMeshBuffer@US3DVertex@video@irr@@@scene@irr@@@8 1015e940     mesh.obj
 0004:0000098c       ??_R0?AVIMeshBuffer@scene@irr@@@8 1015e98c     mesh.obj
 0004:000009b8       ??_R0?AV?$irrAllocator@US3DVertex@video@irr@@@core@irr@@@8 1015e9b8     mesh.obj
 0004:00000a04       ??_R0?AV?$irrAllocator@G@core@irr@@@8 1015ea04     mesh.obj
 0004:00000a38       ??_R0?AV?$CMeshBuffer@US3DVertex2TCoords@video@irr@@@scene@irr@@@8 1015ea38     mesh.obj
 0004:00000a90       ??_R0?AV?$irrAllocator@US3DVertex2TCoords@video@irr@@@core@irr@@@8 1015ea90     mesh.obj
 0004:00000ae8       ??_R0?AV?$CMeshBuffer@US3DVertexTangents@video@irr@@@scene@irr@@@8 1015eae8     mesh.obj
 0004:00000b40       ??_R0?AV?$irrAllocator@US3DVertexTangents@video@irr@@@core@irr@@@8 1015eb40     mesh.obj
 0004:00000c48       ??_R0?AVAffector@@@8       1015ec48     particlescenenode.obj
 0004:00000c64       ??_R0?AVIParticleAffector@scene@irr@@@8 1015ec64     particlescenenode.obj
 0004:00000c98       ??_R0?AVEmitter@@@8        1015ec98     particlescenenode.obj
 0004:00000cb4       ??_R0?AVIParticleEmitter@scene@irr@@@8 1015ecb4     particlescenenode.obj
 0004:00000ce8       ??_R0?AV?$irrAllocator@USParticle@scene@irr@@@core@irr@@@8 1015ece8     particlescenenode.obj
 0004:00000d90       ??_R0?AV?$irrAllocator@PAVITexture@video@irr@@@core@irr@@@8 1015ed90     scenemanager.obj
 0004:00000ddc       ??_R0?AV?$irrAllocator@V?$vector3d@M@core@irr@@@core@irr@@@8 1015eddc     scenemanager.obj
 0004:00000e80       ??_R0?AVManagedAnimator@@@8 1015ee80     scenenode.obj
 0004:00000ea4       ??_R0?AVISceneNodeAnimator@scene@irr@@@8 1015eea4     scenenode.obj
 0004:00009190       ___security_cookie         10167190     MSVCRTD:gs_cookie.obj
 0004:00009194       ___security_cookie_complement 10167194     MSVCRTD:gs_cookie.obj
 0004:00009198       ??_R0?AVtype_info@@@8      10167198     MSVCRTD:ti_inst.obj
 0004:000091c0       ?_RTC_ErrorLevels@@3PAHA   101671c0     MSVCRTD:error.obj
 0004:00009210       ___native_dllmain_reason   10167210     MSVCRTD:natstart.obj
 0004:00009214       ___native_vcclrit_reason   10167214     MSVCRTD:natstart.obj
 0004:00009a60       ?useAlphaChannel@@3_NA     10167a60     guielem2.obj
 0004:0000eeb8       ?wsprintffp@@3P6AHPADPBDZZA 1016ceb8     MSVCRTD:error.obj
 0004:0000f2a0       ?__type_info_root_node@@3U__type_info_node@@A 1016d2a0     MSVCRTD:tncleanup.obj
 0004:0000f2c0       _ft_trace_levels           1016d2c0     <common>
 0004:0000f434       __adjust_fdiv              1016d434     <common>
 0004:0000f440       ___native_startup_state    1016d440     <common>
 0004:0000f450       ___native_startup_lock     1016d450     <common>
 0004:0000f454       ___sse2_available          1016d454     <common>
 0004:0000f460       ___dyn_tls_init_callback   1016d460     <common>
 0004:0000f46c       ___onexitend               1016d46c     <common>
 0004:0000f47c       ___onexitbegin             1016d47c     <common>
 0005:00000000       __IMPORT_DESCRIPTOR_Irrlicht 1016e000     irrlicht:Irrlicht.dll
 0005:00000014       __IMPORT_DESCRIPTOR_KERNEL32 1016e014     kernel32:KERNEL32.dll
 0005:00000028       __IMPORT_DESCRIPTOR_MSVCP80D 1016e028     msvcprtd:MSVCP80D.dll
 0005:0000003c       __IMPORT_DESCRIPTOR_MSVCR80D 1016e03c     MSVCRTD:MSVCR80D.dll
 0005:00000050       __NULL_IMPORT_DESCRIPTOR   1016e050     irrlicht:Irrlicht.dll
 0005:000002ec       __imp_?createDeviceEx@irr@@YAPAVIrrlichtDevice@1@ABUSIrrlichtCreationParameters@1@@Z 1016e2ec     irrlicht:Irrlicht.dll
 0005:000002f0       \177Irrlicht_NULL_THUNK_DATA 1016e2f0     irrlicht:Irrlicht.dll
 0005:0000031c       __imp__OutputDebugStringA@4 1016e31c     kernel32:KERNEL32.dll
 0005:00000320       __imp__FatalAppExitA@8     1016e320     kernel32:KERNEL32.dll
 0005:00000324       __imp__GetSystemTimeAsFileTime@4 1016e324     kernel32:KERNEL32.dll
 0005:00000328       __imp__GetCurrentProcessId@0 1016e328     kernel32:KERNEL32.dll
 0005:0000032c       __imp__GetCurrentThreadId@0 1016e32c     kernel32:KERNEL32.dll
 0005:00000330       __imp__GetTickCount@0      1016e330     kernel32:KERNEL32.dll
 0005:00000334       __imp__QueryPerformanceCounter@4 1016e334     kernel32:KERNEL32.dll
 0005:00000338       __imp__FreeLibrary@4       1016e338     kernel32:KERNEL32.dll
 0005:0000033c       __imp__VirtualQuery@12     1016e33c     kernel32:KERNEL32.dll
 0005:00000340       __imp__GetModuleFileNameW@12 1016e340     kernel32:KERNEL32.dll
 0005:00000344       __imp__GetProcessHeap@0    1016e344     kernel32:KERNEL32.dll
 0005:00000348       __imp__HeapAlloc@12        1016e348     kernel32:KERNEL32.dll
 0005:0000034c       __imp__HeapFree@12         1016e34c     kernel32:KERNEL32.dll
 0005:00000350       __imp__SetUnhandledExceptionFilter@4 1016e350     kernel32:KERNEL32.dll
 0005:00000354       __imp__UnhandledExceptionFilter@4 1016e354     kernel32:KERNEL32.dll
 0005:00000358       __imp__GetCurrentProcess@0 1016e358     kernel32:KERNEL32.dll
 0005:0000035c       __imp__TerminateProcess@8  1016e35c     kernel32:KERNEL32.dll
 0005:00000360       __imp__InterlockedCompareExchange@12 1016e360     kernel32:KERNEL32.dll
 0005:00000364       __imp__Sleep@4             1016e364     kernel32:KERNEL32.dll
 0005:00000368       __imp__InterlockedExchange@8 1016e368     kernel32:KERNEL32.dll
 0005:0000036c       __imp__LoadLibraryA@4      1016e36c     kernel32:KERNEL32.dll
 0005:00000370       __imp__GetProcAddress@8    1016e370     kernel32:KERNEL32.dll
 0005:00000374       __imp__lstrlenA@4          1016e374     kernel32:KERNEL32.dll
 0005:00000378       __imp__MultiByteToWideChar@24 1016e378     kernel32:KERNEL32.dll
 0005:0000037c       __imp__IsDebuggerPresent@0 1016e37c     kernel32:KERNEL32.dll
 0005:00000380       __imp__WideCharToMultiByte@32 1016e380     kernel32:KERNEL32.dll
 0005:00000384       __imp__DebugBreak@0        1016e384     kernel32:KERNEL32.dll
 0005:00000388       __imp__RaiseException@16   1016e388     kernel32:KERNEL32.dll
 0005:0000038c       __imp__DisableThreadLibraryCalls@4 1016e38c     kernel32:KERNEL32.dll
 0005:00000390       \177KERNEL32_NULL_THUNK_DATA 1016e390     kernel32:KERNEL32.dll
 0005:000003d0       __imp_??1?$basic_string@DU?$char_traits@D@std@@V?$allocator@D@2@@std@@QAE@XZ 1016e3d0     msvcprtd:MSVCP80D.dll
 0005:000003d4       __imp_?length@?$basic_string@DU?$char_traits@D@std@@V?$allocator@D@2@@std@@QBEIXZ 1016e3d4     msvcprtd:MSVCP80D.dll
 0005:000003d8       __imp_??0?$basic_string@DU?$char_traits@D@std@@V?$allocator@D@2@@std@@QAE@PBD@Z 1016e3d8     msvcprtd:MSVCP80D.dll
 0005:000003dc       __imp_??1?$basic_string@_WU?$char_traits@_W@std@@V?$allocator@_W@2@@std@@QAE@XZ 1016e3dc     msvcprtd:MSVCP80D.dll
 0005:000003e0       __imp_?c_str@?$basic_string@_WU?$char_traits@_W@std@@V?$allocator@_W@2@@std@@QBEPB_WXZ 1016e3e0     msvcprtd:MSVCP80D.dll
 0005:000003e4       __imp_?length@?$basic_string@_WU?$char_traits@_W@std@@V?$allocator@_W@2@@std@@QBEIXZ 1016e3e4     msvcprtd:MSVCP80D.dll
 0005:000003e8       __imp_??0?$basic_string@_WU?$char_traits@_W@std@@V?$allocator@_W@2@@std@@QAE@PB_W@Z 1016e3e8     msvcprtd:MSVCP80D.dll
 0005:000003ec       __imp_?c_str@?$basic_string@DU?$char_traits@D@std@@V?$allocator@D@2@@std@@QBEPBDXZ 1016e3ec     msvcprtd:MSVCP80D.dll
 0005:000003f0       \177MSVCP80D_NULL_THUNK_DATA 1016e3f0     msvcprtd:MSVCP80D.dll
 0005:00000420       __imp__free                1016e420     MSVCRTD:MSVCR80D.dll
 0005:00000424       __imp__vsprintf            1016e424     MSVCRTD:MSVCR80D.dll
 0005:00000428       __imp__exit                1016e428     MSVCRTD:MSVCR80D.dll
 0005:0000042c       __imp__getenv              1016e42c     MSVCRTD:MSVCR80D.dll
 0005:00000430       __imp__memcmp              1016e430     MSVCRTD:MSVCR80D.dll
 0005:00000434       __imp__qsort               1016e434     MSVCRTD:MSVCR80D.dll
 0005:00000438       __imp___setjmp3            1016e438     MSVCRTD:MSVCR80D.dll
 0005:0000043c       __imp__memchr              1016e43c     MSVCRTD:MSVCR80D.dll
 0005:00000440       __imp__strncmp             1016e440     MSVCRTD:MSVCR80D.dll
 0005:00000444       __imp__isdigit             1016e444     MSVCRTD:MSVCR80D.dll
 0005:00000448       __imp__atol                1016e448     MSVCRTD:MSVCR80D.dll
 0005:0000044c       __imp__strcat              1016e44c     MSVCRTD:MSVCR80D.dll
 0005:00000450       __imp__strstr              1016e450     MSVCRTD:MSVCR80D.dll
 0005:00000454       __imp___CRT_RTC_INITW      1016e454     MSVCRTD:MSVCR80D.dll
 0005:00000458       __imp___unlock             1016e458     MSVCRTD:MSVCR80D.dll
 0005:0000045c       __imp___encode_pointer     1016e45c     MSVCRTD:MSVCR80D.dll
 0005:00000460       __imp____dllonexit         1016e460     MSVCRTD:MSVCR80D.dll
 0005:00000464       __imp___lock               1016e464     MSVCRTD:MSVCR80D.dll
 0005:00000468       __imp___onexit             1016e468     MSVCRTD:MSVCR80D.dll
 0005:0000046c       __imp___decode_pointer     1016e46c     MSVCRTD:MSVCR80D.dll
 0005:00000470       __imp_?terminate@@YAXXZ    1016e470     MSVCRTD:MSVCR80D.dll
 0005:00000474       __imp___malloc_dbg         1016e474     MSVCRTD:MSVCR80D.dll
 0005:00000478       __imp___encoded_null       1016e478     MSVCRTD:MSVCR80D.dll
 0005:0000047c       __imp___free_dbg           1016e47c     MSVCRTD:MSVCR80D.dll
 0005:00000480       __imp___CrtSetCheckCount   1016e480     MSVCRTD:MSVCR80D.dll
 0005:00000484       __imp___initterm           1016e484     MSVCRTD:MSVCR80D.dll
 0005:00000488       __imp__realloc             1016e488     MSVCRTD:MSVCR80D.dll
 0005:0000048c       __imp___amsg_exit          1016e48c     MSVCRTD:MSVCR80D.dll
 0005:00000490       __imp___adjust_fdiv        1016e490     MSVCRTD:MSVCR80D.dll
 0005:00000494       __imp____CppXcptFilter     1016e494     MSVCRTD:MSVCR80D.dll
 0005:00000498       __imp___crt_debugger_hook  1016e498     MSVCRTD:MSVCR80D.dll
 0005:0000049c       __imp_?_type_info_dtor_internal_method@type_info@@QAEXXZ 1016e49c     MSVCRTD:MSVCR80D.dll
 0005:000004a0       __imp___except_handler4_common 1016e4a0     MSVCRTD:MSVCR80D.dll
 0005:000004a4       __imp____clean_type_info_names_internal 1016e4a4     MSVCRTD:MSVCR80D.dll
 0005:000004a8       __imp__strlen              1016e4a8     MSVCRTD:MSVCR80D.dll
 0005:000004ac       __imp__longjmp             1016e4ac     MSVCRTD:MSVCR80D.dll
 0005:000004b0       __imp__strcmp              1016e4b0     MSVCRTD:MSVCR80D.dll
 0005:000004b4       __imp__memmove             1016e4b4     MSVCRTD:MSVCR80D.dll
 0005:000004b8       __imp__sin                 1016e4b8     MSVCRTD:MSVCR80D.dll
 0005:000004bc       __imp__cos                 1016e4bc     MSVCRTD:MSVCR80D.dll
 0005:000004c0       __imp__wcstombs_s          1016e4c0     MSVCRTD:MSVCR80D.dll
 0005:000004c4       __imp__mbstowcs_s          1016e4c4     MSVCRTD:MSVCR80D.dll
 0005:000004c8       __imp_??_V@YAXPAX@Z        1016e4c8     MSVCRTD:MSVCR80D.dll
 0005:000004cc       __imp__sprintf             1016e4cc     MSVCRTD:MSVCR80D.dll
 0005:000004d0       __imp__memcpy              1016e4d0     MSVCRTD:MSVCR80D.dll
 0005:000004d4       __imp__sqrt                1016e4d4     MSVCRTD:MSVCR80D.dll
 0005:000004d8       __imp__fabs                1016e4d8     MSVCRTD:MSVCR80D.dll
 0005:000004dc       __imp__memset              1016e4dc     MSVCRTD:MSVCR80D.dll
 0005:000004e0       __imp___purecall           1016e4e0     MSVCRTD:MSVCR80D.dll
 0005:000004e4       __imp_??3@YAXPAX@Z         1016e4e4     MSVCRTD:MSVCR80D.dll
 0005:000004e8       __imp____CxxFrameHandler3  1016e4e8     MSVCRTD:MSVCR80D.dll
 0005:000004ec       __imp_??2@YAPAXI@Z         1016e4ec     MSVCRTD:MSVCR80D.dll
 0005:000004f0       __imp__malloc              1016e4f0     MSVCRTD:MSVCR80D.dll
 0005:000004f4       __imp__fread               1016e4f4     MSVCRTD:MSVCR80D.dll
 0005:000004f8       __imp__fclose              1016e4f8     MSVCRTD:MSVCR80D.dll
 0005:000004fc       __imp__fopen               1016e4fc     MSVCRTD:MSVCR80D.dll
 0005:00000500       __imp__fseek               1016e500     MSVCRTD:MSVCR80D.dll
 0005:00000504       __imp__ftell               1016e504     MSVCRTD:MSVCR80D.dll
 0005:00000508       __imp__strrchr             1016e508     MSVCRTD:MSVCR80D.dll
 0005:0000050c       __imp___initterm_e         1016e50c     MSVCRTD:MSVCR80D.dll
 0005:00000510       __imp__strncpy             1016e510     MSVCRTD:MSVCR80D.dll
 0005:00000514       __imp__isxdigit            1016e514     MSVCRTD:MSVCR80D.dll
 0005:00000518       \177MSVCR80D_NULL_THUNK_DATA 1016e518     MSVCRTD:MSVCR80D.dll

 entry point at        0002:000013ec


 Exports

  ordinal    name

        1    _AnimatedMeshSceneNode_AddShadowVolumeSceneNode
               exported name: AnimatedMeshSceneNode_AddShadowVolumeSceneNode
        2    _AnimatedMeshSceneNode_AnimateJoints
               exported name: AnimatedMeshSceneNode_AnimateJoints
        3    _AnimatedMeshSceneNode_GetFrameNr
               exported name: AnimatedMeshSceneNode_GetFrameNr
        4    _AnimatedMeshSceneNode_GetJointNode
               exported name: AnimatedMeshSceneNode_GetJointNode
        5    _AnimatedMeshSceneNode_GetJointNodeA
               exported name: AnimatedMeshSceneNode_GetJointNodeA
        6    _AnimatedMeshSceneNode_GetMS3DJointNode
               exported name: AnimatedMeshSceneNode_GetMS3DJointNode
        7    _AnimatedMeshSceneNode_GetMesh
               exported name: AnimatedMeshSceneNode_GetMesh
        8    _AnimatedMeshSceneNode_GetXJointNode
               exported name: AnimatedMeshSceneNode_GetXJointNode
        9    _AnimatedMeshSceneNode_SetAnimationEndCallback
               exported name: AnimatedMeshSceneNode_SetAnimationEndCallback
       10    _AnimatedMeshSceneNode_SetAnimationSpeed
               exported name: AnimatedMeshSceneNode_SetAnimationSpeed
       11    _AnimatedMeshSceneNode_SetCurrentFrame
               exported name: AnimatedMeshSceneNode_SetCurrentFrame
       12    _AnimatedMeshSceneNode_SetFrameLoop
               exported name: AnimatedMeshSceneNode_SetFrameLoop
       13    _AnimatedMeshSceneNode_SetJointMode
               exported name: AnimatedMeshSceneNode_SetJointMode
       14    _AnimatedMeshSceneNode_SetLoopMode
               exported name: AnimatedMeshSceneNode_SetLoopMode
       15    _AnimatedMeshSceneNode_SetMD2Animation
               exported name: AnimatedMeshSceneNode_SetMD2Animation
       16    _AnimatedMeshSceneNode_SetMD2AnimationA
               exported name: AnimatedMeshSceneNode_SetMD2AnimationA
       17    _AnimatedMesh_GetBoundingBox
               exported name: AnimatedMesh_GetBoundingBox
       18    _AnimatedMesh_GetFrameLoopMD2
               exported name: AnimatedMesh_GetFrameLoopMD2
       19    _AnimatedMesh_GetFrameLoopMD2a
               exported name: AnimatedMesh_GetFrameLoopMD2a
       20    _AnimatedMesh_GetMesh
               exported name: AnimatedMesh_GetMesh
       21    _AnimatedMesh_GetMeshType
               exported name: AnimatedMesh_GetMeshType
       22    _AnimationMesh_GetAnimationCountMD2
               exported name: AnimationMesh_GetAnimationCountMD2
       23    _AnimationMesh_GetAnimationNameMD2
               exported name: AnimationMesh_GetAnimationNameMD2
       24    _BillboardSceneNode_GetSize
               exported name: BillboardSceneNode_GetSize
       25    _BillboardSceneNode_SetSize
               exported name: BillboardSceneNode_SetSize
       26    _BoneSceneNode_GetAnimationMode
               exported name: BoneSceneNode_GetAnimationMode
       27    _BoneSceneNode_GetBoneIndex
               exported name: BoneSceneNode_GetBoneIndex
       28    _BoneSceneNode_GetBoneName
               exported name: BoneSceneNode_GetBoneName
       29    _BoneSceneNode_GetPositionHint
               exported name: BoneSceneNode_GetPositionHint
       30    _BoneSceneNode_GetRotationHint
               exported name: BoneSceneNode_GetRotationHint
       31    _BoneSceneNode_GetScaleHint
               exported name: BoneSceneNode_GetScaleHint
       32    _BoneSceneNode_GetSkinningSpace
               exported name: BoneSceneNode_GetSkinningSpace
       33    _BoneSceneNode_SetAnimationMode
               exported name: BoneSceneNode_SetAnimationMode
       34    _BoneSceneNode_SetPositionHint
               exported name: BoneSceneNode_SetPositionHint
       35    _BoneSceneNode_SetRotationHint
               exported name: BoneSceneNode_SetRotationHint
       36    _BoneSceneNode_SetScaleHint
               exported name: BoneSceneNode_SetScaleHint
       37    _BoneSceneNode_SetSkinningSpace
               exported name: BoneSceneNode_SetSkinningSpace
       38    _BoneSceneNode_UAPOAC
               exported name: BoneSceneNode_UAPOAC
       39    _CGE_CREATE
               exported name: CGE_CREATE
       40    _CGE_PINTPTR_METHODS
               exported name: CGE_PINTPTR_METHODS
       41    _CGE_PINT_METHODS
               exported name: CGE_PINT_METHODS
       42    _CGE_PVOID_METHODS
               exported name: CGE_PVOID_METHODS
       43    _CSN_CREATE
               exported name: CSN_CREATE
       44    _CSN_PFLOAT_METHODS
               exported name: CSN_PFLOAT_METHODS
       45    _CSN_PINTPTR_METHODS
               exported name: CSN_PINTPTR_METHODS
       46    _CSN_PINT_METHODS
               exported name: CSN_PINT_METHODS
       47    _CSN_PVOID_METHODS
               exported name: CSN_PVOID_METHODS
       48    _CSN_SET_TEMP_FLOATS
               exported name: CSN_SET_TEMP_FLOATS
       49    _CameraFPS_GetMoveSpeed
               exported name: CameraFPS_GetMoveSpeed
       50    _CameraFPS_GetRotateSpeed
               exported name: CameraFPS_GetRotateSpeed
       51    _CameraFPS_SetMoveSpeed
               exported name: CameraFPS_SetMoveSpeed
       52    _CameraFPS_SetRotateSpeed
               exported name: CameraFPS_SetRotateSpeed
       53    _Camera_GetAspectRation
               exported name: Camera_GetAspectRation
       54    _Camera_GetFOV
               exported name: Camera_GetFOV
       55    _Camera_GetFarValue
               exported name: Camera_GetFarValue
       56    _Camera_GetNearValue
               exported name: Camera_GetNearValue
       57    _Camera_GetProjectionMatrix
               exported name: Camera_GetProjectionMatrix
       58    _Camera_GetTarget
               exported name: Camera_GetTarget
       59    _Camera_GetUpVector
               exported name: Camera_GetUpVector
       60    _Camera_GetViewFrustrum
               exported name: Camera_GetViewFrustrum
       61    _Camera_GetViewMatrix
               exported name: Camera_GetViewMatrix
       62    _Camera_IsInputReceiverEnabled
               exported name: Camera_IsInputReceiverEnabled
       63    _Camera_IsOrthogonal
               exported name: Camera_IsOrthogonal
       64    _Camera_OnEvent
               exported name: Camera_OnEvent
       65    _Camera_SetAspectRatio
               exported name: Camera_SetAspectRatio
       66    _Camera_SetFOV
               exported name: Camera_SetFOV
       67    _Camera_SetFarValue
               exported name: Camera_SetFarValue
       68    _Camera_SetInputReceiverEnabled
               exported name: Camera_SetInputReceiverEnabled
       69    _Camera_SetIsOrthogonal
               exported name: Camera_SetIsOrthogonal
       70    _Camera_SetNearValue
               exported name: Camera_SetNearValue
       71    _Camera_SetProjectionMatrix
               exported name: Camera_SetProjectionMatrix
       72    _Camera_SetTarget
               exported name: Camera_SetTarget
       73    _Camera_SetUpVector
               exported name: Camera_SetUpVector
       74    _CreateDevice
               exported name: CreateDevice
       75    _CreateDeviceA
               exported name: CreateDeviceA
       76    _CursorControl_GetPosition
               exported name: CursorControl_GetPosition
       77    _CursorControl_GetRelativePosition
               exported name: CursorControl_GetRelativePosition
       78    _CursorControl_IsVisible
               exported name: CursorControl_IsVisible
       79    _CursorControl_SetPosition
               exported name: CursorControl_SetPosition
       80    _CursorControl_SetPositionA
               exported name: CursorControl_SetPositionA
       81    _CursorControl_SetVisible
               exported name: CursorControl_SetVisible
       82    _Device_Close
               exported name: Device_Close
       83    _Device_Drop
               exported name: Device_Drop
       84    _Device_GetCursorControl
               exported name: Device_GetCursorControl
       85    _Device_GetFileSystem
               exported name: Device_GetFileSystem
       86    _Device_GetGUIEnvironment
               exported name: Device_GetGUIEnvironment
       87    _Device_GetLogger
               exported name: Device_GetLogger
       88    _Device_GetSceneManager
               exported name: Device_GetSceneManager
       89    _Device_GetTimer
               exported name: Device_GetTimer
       90    _Device_GetVersion
               exported name: Device_GetVersion
       91    _Device_GetVideoDriver
               exported name: Device_GetVideoDriver
       92    _Device_GetVideoModeList
               exported name: Device_GetVideoModeList
       93    _Device_IsWindowActive
               exported name: Device_IsWindowActive
       94    _Device_Run
               exported name: Device_Run
       95    _Device_SetCallback
               exported name: Device_SetCallback
       96    _Device_SetResizeable
               exported name: Device_SetResizeable
       97    _Device_SetWindowCaption
               exported name: Device_SetWindowCaption
       98    _Emitter_AddParticle
               exported name: Emitter_AddParticle
       99    _Event_Create
               exported name: Event_Create
      100    _Event_GetCaller
               exported name: Event_GetCaller
      101    _Event_GetGUIEventType
               exported name: Event_GetGUIEventType
      102    _Event_GetKey
               exported name: Event_GetKey
      103    _Event_GetKeyChar
               exported name: Event_GetKeyChar
      104    _Event_GetKeyControl
               exported name: Event_GetKeyControl
      105    _Event_GetKeyPressedDown
               exported name: Event_GetKeyPressedDown
      106    _Event_GetKeyShift
               exported name: Event_GetKeyShift
      107    _Event_GetLogString
               exported name: Event_GetLogString
      108    _Event_GetMouseInputEvent
               exported name: Event_GetMouseInputEvent
      109    _Event_GetMousePosition
               exported name: Event_GetMousePosition
      110    _Event_GetMouseWheelDelta
               exported name: Event_GetMouseWheelDelta
      111    _Event_GetType
               exported name: Event_GetType
      112    _Event_GetUserDataF
               exported name: Event_GetUserDataF
      113    _Event_SetType
               exported name: Event_SetType
      114    _Event_SetUserDataF
               exported name: Event_SetUserDataF
      115    _Event_SetUserDataI
               exported name: Event_SetUserDataI
      116    _FileList_GetFileCount
               exported name: FileList_GetFileCount
      117    _FileList_GetFileName
               exported name: FileList_GetFileName
      118    _FileList_GetFullFileName
               exported name: FileList_GetFullFileName
      119    _FileList_IsDirectory
               exported name: FileList_IsDirectory
      120    _FileSystem_AddZipFileArchive
               exported name: FileSystem_AddZipFileArchive
      121    _FileSystem_ChangeWorkingDirectory
               exported name: FileSystem_ChangeWorkingDirectory
      122    _FileSystem_ExistsFile
               exported name: FileSystem_ExistsFile
      123    _FileSystem_GetFileList
               exported name: FileSystem_GetFileList
      124    _FileSystem_GetWorkingDirectory
               exported name: FileSystem_GetWorkingDirectory
      125    _GPU_AddHighLevelShaderMaterial
               exported name: GPU_AddHighLevelShaderMaterial
      126    _GPU_AddHighLevelShaderMaterialFromFiles
               exported name: GPU_AddHighLevelShaderMaterialFromFiles
      127    _GPU_AddShaderMaterial
               exported name: GPU_AddShaderMaterial
      128    _GPU_AddShaderMaterialFromFiles
               exported name: GPU_AddShaderMaterialFromFiles
      129    _GUIButton_GetUseAlphaChannel
               exported name: GUIButton_GetUseAlphaChannel
      130    _GUIButton_IsPressed
               exported name: GUIButton_IsPressed
      131    _GUIButton_SetImage
               exported name: GUIButton_SetImage
      132    _GUIButton_SetImageA
               exported name: GUIButton_SetImageA
      133    _GUIButton_SetIsPushButton
               exported name: GUIButton_SetIsPushButton
      134    _GUIButton_SetOverrideFont
               exported name: GUIButton_SetOverrideFont
      135    _GUIButton_SetPressed
               exported name: GUIButton_SetPressed
      136    _GUIButton_SetPressedImage
               exported name: GUIButton_SetPressedImage
      137    _GUIButton_SetPressedImageA
               exported name: GUIButton_SetPressedImageA
      138    _GUIButton_SetUseAlphaChannel
               exported name: GUIButton_SetUseAlphaChannel
      139    _GUICheckBox_IsChecked
               exported name: GUICheckBox_IsChecked
      140    _GUICheckBox_SetChecked
               exported name: GUICheckBox_SetChecked
      141    _GUIComboBox_AddItem
               exported name: GUIComboBox_AddItem
      142    _GUIComboBox_Clear
               exported name: GUIComboBox_Clear
      143    _GUIComboBox_GetItem
               exported name: GUIComboBox_GetItem
      144    _GUIComboBox_GetItemCount
               exported name: GUIComboBox_GetItemCount
      145    _GUIComboBox_GetSelected
               exported name: GUIComboBox_GetSelected
      146    _GUIComboBox_SetSelected
               exported name: GUIComboBox_SetSelected
      147    _GUIContextMenu_AddItem
               exported name: GUIContextMenu_AddItem
      148    _GUIContextMenu_AddSeparator
               exported name: GUIContextMenu_AddSeparator
      149    _GUIContextMenu_GetItemCommandID
               exported name: GUIContextMenu_GetItemCommandID
      150    _GUIContextMenu_GetItemCount
               exported name: GUIContextMenu_GetItemCount
      151    _GUIContextMenu_GetItemText
               exported name: GUIContextMenu_GetItemText
      152    _GUIContextMenu_GetSelectedItem
               exported name: GUIContextMenu_GetSelectedItem
      153    _GUIContextMenu_GetSubMenu
               exported name: GUIContextMenu_GetSubMenu
      154    _GUIContextMenu_IsItemEnabled
               exported name: GUIContextMenu_IsItemEnabled
      155    _GUIContextMenu_RemoveAllItems
               exported name: GUIContextMenu_RemoveAllItems
      156    _GUIContextMenu_RemoveItem
               exported name: GUIContextMenu_RemoveItem
      157    _GUIContextMenu_SetItemCommandID
               exported name: GUIContextMenu_SetItemCommandID
      158    _GUIContextMenu_SetItemEnabled
               exported name: GUIContextMenu_SetItemEnabled
      159    _GUIContextMenu_SetItemText
               exported name: GUIContextMenu_SetItemText
      160    _GUIEditBox_EnableOverrideColor
               exported name: GUIEditBox_EnableOverrideColor
      161    _GUIEditBox_GetMax
               exported name: GUIEditBox_GetMax
      162    _GUIEditBox_SetMax
               exported name: GUIEditBox_SetMax
      163    _GUIEditBox_SetOverrideColor
               exported name: GUIEditBox_SetOverrideColor
      164    _GUIEditBox_SetOverrideFont
               exported name: GUIEditBox_SetOverrideFont
      165    _GUIFader_FadeIn
               exported name: GUIFader_FadeIn
      166    _GUIFader_FadeOut
               exported name: GUIFader_FadeOut
      167    _GUIFader_GetColor
               exported name: GUIFader_GetColor
      168    _GUIFader_IsReady
               exported name: GUIFader_IsReady
      169    _GUIFader_SetColor
               exported name: GUIFader_SetColor
      170    _GUIFileOpenDialog_GetFilename
               exported name: GUIFileOpenDialog_GetFilename
      171    _GUIFont_Draw
               exported name: GUIFont_Draw
      172    _GUIFont_GetCharacterFromPos
               exported name: GUIFont_GetCharacterFromPos
      173    _GUIFont_GetDimension
               exported name: GUIFont_GetDimension
      174    _GUIImage_SetImage
               exported name: GUIImage_SetImage
      175    _GUIImage_SetUseAlphaChannel
               exported name: GUIImage_SetUseAlphaChannel
      176    _GUIListBox_AddItem
               exported name: GUIListBox_AddItem
      177    _GUIListBox_AddItemA
               exported name: GUIListBox_AddItemA
      178    _GUIListBox_Clear
               exported name: GUIListBox_Clear
      179    _GUIListBox_GetItemCount
               exported name: GUIListBox_GetItemCount
      180    _GUIListBox_GetListItem
               exported name: GUIListBox_GetListItem
      181    _GUIListBox_GetSelected
               exported name: GUIListBox_GetSelected
      182    _GUIListBox_SetSelected
               exported name: GUIListBox_SetSelected
      183    _GUIMeshViewer_GetMaterial
               exported name: GUIMeshViewer_GetMaterial
      184    _GUIMeshViewer_SetMaterial
               exported name: GUIMeshViewer_SetMaterial
      185    _GUIMeshViewer_SetMesh
               exported name: GUIMeshViewer_SetMesh
      186    _GUIScrollBar_GetPos
               exported name: GUIScrollBar_GetPos
      187    _GUIScrollBar_SetMax
               exported name: GUIScrollBar_SetMax
      188    _GUIScrollBar_SetPos
               exported name: GUIScrollBar_SetPos
      189    _GUISpinBox_GetEditBox
               exported name: GUISpinBox_GetEditBox
      190    _GUISpinBox_GetMax
               exported name: GUISpinBox_GetMax
      191    _GUISpinBox_GetMin
               exported name: GUISpinBox_GetMin
      192    _GUISpinBox_GetStepSize
               exported name: GUISpinBox_GetStepSize
      193    _GUISpinBox_GetValue
               exported name: GUISpinBox_GetValue
      194    _GUISpinBox_SetDecimalPlaces
               exported name: GUISpinBox_SetDecimalPlaces
      195    _GUISpinBox_SetRange
               exported name: GUISpinBox_SetRange
      196    _GUISpinBox_SetStepSize
               exported name: GUISpinBox_SetStepSize
      197    _GUISpinBox_SetValue
               exported name: GUISpinBox_SetValue
      198    _GUIStaticText_EnableOverrideColor
               exported name: GUIStaticText_EnableOverrideColor
      199    _GUIStaticText_GetTextHeight
               exported name: GUIStaticText_GetTextHeight
      200    _GUIStaticText_SetOverrideColor
               exported name: GUIStaticText_SetOverrideColor
      201    _GUIStaticText_SetOverrideFont
               exported name: GUIStaticText_SetOverrideFont
      202    _GUIStaticText_SetWordWrap
               exported name: GUIStaticText_SetWordWrap
      203    _GUITabControl_AddTab
               exported name: GUITabControl_AddTab
      204    _GUITabControl_GetActiveTab
               exported name: GUITabControl_GetActiveTab
      205    _GUITabControl_GetTab
               exported name: GUITabControl_GetTab
      206    _GUITabControl_GetTabCount
               exported name: GUITabControl_GetTabCount
      207    _GUITabControl_SetActiveTab
               exported name: GUITabControl_SetActiveTab
      208    _GUITab_GetNumber
               exported name: GUITab_GetNumber
      209    _GUITab_SetBackgroundColor
               exported name: GUITab_SetBackgroundColor
      210    _GUITab_SetDrawBackground
               exported name: GUITab_SetDrawBackground
      211    _GUIToolBar_AddButton
               exported name: GUIToolBar_AddButton
      212    _GUIWindow_GetCloseButton
               exported name: GUIWindow_GetCloseButton
      213    _GUIWindow_GetMaximizeButton
               exported name: GUIWindow_GetMaximizeButton
      214    _GUIWindow_GetMinimizeButton
               exported name: GUIWindow_GetMinimizeButton
      215    _GuiElem_AddChild
               exported name: GuiElem_AddChild
      216    _GuiElem_BringToFront
               exported name: GuiElem_BringToFront
      217    _GuiElem_Draw
               exported name: GuiElem_Draw
      218    _GuiElem_GetAbsolutePosition
               exported name: GuiElem_GetAbsolutePosition
      219    _GuiElem_GetChildren
               exported name: GuiElem_GetChildren
      220    _GuiElem_GetChildrenCount
               exported name: GuiElem_GetChildrenCount
      221    _GuiElem_GetElementFromID
               exported name: GuiElem_GetElementFromID
      222    _GuiElem_GetElementFromPoint
               exported name: GuiElem_GetElementFromPoint
      223    _GuiElem_GetID
               exported name: GuiElem_GetID
      224    _GuiElem_GetNotClipped
               exported name: GuiElem_GetNotClipped
      225    _GuiElem_GetParent
               exported name: GuiElem_GetParent
      226    _GuiElem_GetRelativePosition
               exported name: GuiElem_GetRelativePosition
      227    _GuiElem_GetText
               exported name: GuiElem_GetText
      228    _GuiElem_GetToolTipText
               exported name: GuiElem_GetToolTipText
      229    _GuiElem_GetType
               exported name: GuiElem_GetType
      230    _GuiElem_IsEnabled
               exported name: GuiElem_IsEnabled
      231    _GuiElem_IsVisible
               exported name: GuiElem_IsVisible
      232    _GuiElem_Move
               exported name: GuiElem_Move
      233    _GuiElem_OnEvent
               exported name: GuiElem_OnEvent
      234    _GuiElem_OnPostRender
               exported name: GuiElem_OnPostRender
      235    _GuiElem_Remove
               exported name: GuiElem_Remove
      236    _GuiElem_RemoveChild
               exported name: GuiElem_RemoveChild
      237    _GuiElem_SetAlignment
               exported name: GuiElem_SetAlignment
      238    _GuiElem_SetEnabled
               exported name: GuiElem_SetEnabled
      239    _GuiElem_SetID
               exported name: GuiElem_SetID
      240    _GuiElem_SetMaxSize
               exported name: GuiElem_SetMaxSize
      241    _GuiElem_SetMinSize
               exported name: GuiElem_SetMinSize
      242    _GuiElem_SetNotClipped
               exported name: GuiElem_SetNotClipped
      243    _GuiElem_SetRelativePosition
               exported name: GuiElem_SetRelativePosition
      244    _GuiElem_SetText
               exported name: GuiElem_SetText
      245    _GuiElem_SetToolTipText
               exported name: GuiElem_SetToolTipText
      246    _GuiElem_SetVisible
               exported name: GuiElem_SetVisible
      247    _GuiElem_UpdateAbsolutePosition
               exported name: GuiElem_UpdateAbsolutePosition
      248    _GuiEnv_AddButton
               exported name: GuiEnv_AddButton
      249    _GuiEnv_AddCheckBox
               exported name: GuiEnv_AddCheckBox
      250    _GuiEnv_AddColorSelectDialog
               exported name: GuiEnv_AddColorSelectDialog
      251    _GuiEnv_AddComboBox
               exported name: GuiEnv_AddComboBox
      252    _GuiEnv_AddContextMenu
               exported name: GuiEnv_AddContextMenu
      253    _GuiEnv_AddEditBox
               exported name: GuiEnv_AddEditBox
      254    _GuiEnv_AddFileOpenDialog
               exported name: GuiEnv_AddFileOpenDialog
      255    _GuiEnv_AddImage
               exported name: GuiEnv_AddImage
      256    _GuiEnv_AddImageA
               exported name: GuiEnv_AddImageA
      257    _GuiEnv_AddInOutFader
               exported name: GuiEnv_AddInOutFader
      258    _GuiEnv_AddListBox
               exported name: GuiEnv_AddListBox
      259    _GuiEnv_AddMenu
               exported name: GuiEnv_AddMenu
      260    _GuiEnv_AddMeshViewer
               exported name: GuiEnv_AddMeshViewer
      261    _GuiEnv_AddMessageBox
               exported name: GuiEnv_AddMessageBox
      262    _GuiEnv_AddScrollBar
               exported name: GuiEnv_AddScrollBar
      263    _GuiEnv_AddSpinBox
               exported name: GuiEnv_AddSpinBox
      264    _GuiEnv_AddStaticText
               exported name: GuiEnv_AddStaticText
      265    _GuiEnv_AddTab
               exported name: GuiEnv_AddTab
      266    _GuiEnv_AddTabControl
               exported name: GuiEnv_AddTabControl
      267    _GuiEnv_AddToolBar
               exported name: GuiEnv_AddToolBar
      268    _GuiEnv_AddWindow
               exported name: GuiEnv_AddWindow
      269    _GuiEnv_Clear
               exported name: GuiEnv_Clear
      270    _GuiEnv_CreateSkin
               exported name: GuiEnv_CreateSkin
      271    _GuiEnv_DrawAll
               exported name: GuiEnv_DrawAll
      272    _GuiEnv_GetBuiltInFont
               exported name: GuiEnv_GetBuiltInFont
      273    _GuiEnv_GetFont
               exported name: GuiEnv_GetFont
      274    _GuiEnv_GetRootGUIElement
               exported name: GuiEnv_GetRootGUIElement
      275    _GuiEnv_GetSkin
               exported name: GuiEnv_GetSkin
      276    _GuiEnv_GetVideoDriver
               exported name: GuiEnv_GetVideoDriver
      277    _GuiEnv_HasFocus
               exported name: GuiEnv_HasFocus
      278    _GuiEnv_LoadGUI
               exported name: GuiEnv_LoadGUI
      279    _GuiEnv_PostEventFromUser
               exported name: GuiEnv_PostEventFromUser
      280    _GuiEnv_RemoveFocus
               exported name: GuiEnv_RemoveFocus
      281    _GuiEnv_SaveGUI
               exported name: GuiEnv_SaveGUI
      282    _GuiEnv_SetFocus
               exported name: GuiEnv_SetFocus
      283    _GuiEnv_SetSkin
               exported name: GuiEnv_SetSkin
      284    _GuiSkin_GetColor
               exported name: GuiSkin_GetColor
      285    _GuiSkin_GetDefaultText
               exported name: GuiSkin_GetDefaultText
      286    _GuiSkin_GetFont
               exported name: GuiSkin_GetFont
      287    _GuiSkin_GetSize
               exported name: GuiSkin_GetSize
      288    _GuiSkin_SetColor
               exported name: GuiSkin_SetColor
      289    _GuiSkin_SetDefaultText
               exported name: GuiSkin_SetDefaultText
      290    _GuiSkin_SetFont
               exported name: GuiSkin_SetFont
      291    _GuiSkin_SetSize
               exported name: GuiSkin_SetSize
      292    _IAnimator_Create
               exported name: IAnimator_Create
      293    _LightSceneNode_GetLight
               exported name: LightSceneNode_GetLight
      294    _LightSceneNode_SetLight
               exported name: LightSceneNode_SetLight
      295    _LockResult_GetPixel
               exported name: LockResult_GetPixel
      296    _LockResult_SetPixel
               exported name: LockResult_SetPixel
      297    _Logger_GetLogLevel
               exported name: Logger_GetLogLevel
      298    _Logger_Log
               exported name: Logger_Log
      299    _Logger_LogA
               exported name: Logger_LogA
      300    _Logger_SetLogLevel
               exported name: Logger_SetLogLevel
      301    _MaterialLayer_Create
               exported name: MaterialLayer_Create
      302    _MaterialLayer_GetAnisotropicFilter
               exported name: MaterialLayer_GetAnisotropicFilter
      303    _MaterialLayer_GetBilinearFilter
               exported name: MaterialLayer_GetBilinearFilter
      304    _MaterialLayer_GetTexture
               exported name: MaterialLayer_GetTexture
      305    _MaterialLayer_GetTransform
               exported name: MaterialLayer_GetTransform
      306    _MaterialLayer_GetTrilinearFilter
               exported name: MaterialLayer_GetTrilinearFilter
      307    _MaterialLayer_SetAnisotropicFilter
               exported name: MaterialLayer_SetAnisotropicFilter
      308    _MaterialLayer_SetBilinearFilter
               exported name: MaterialLayer_SetBilinearFilter
      309    _MaterialLayer_SetTexture
               exported name: MaterialLayer_SetTexture
      310    _MaterialLayer_SetTransform
               exported name: MaterialLayer_SetTransform
      311    _MaterialLayer_SetTrilinearFilter
               exported name: MaterialLayer_SetTrilinearFilter
      312    _MaterialRendererServices_GetVideoDriver
               exported name: MaterialRendererServices_GetVideoDriver
      313    _MaterialRendererServices_SetBasicRenderStates
               exported name: MaterialRendererServices_SetBasicRenderStates
      314    _MaterialRendererServices_SetPixelShaderConstant
               exported name: MaterialRendererServices_SetPixelShaderConstant
      315    _MaterialRendererServices_SetPixelShaderConstantA
               exported name: MaterialRendererServices_SetPixelShaderConstantA
      316    _MaterialRendererServices_SetVertexShaderConstant
               exported name: MaterialRendererServices_SetVertexShaderConstant
      317    _MaterialRendererServices_SetVertexShaderConstantA
               exported name: MaterialRendererServices_SetVertexShaderConstantA
      318    _Material_Create
               exported name: Material_Create
      319    _Material_GetAmbientColor
               exported name: Material_GetAmbientColor
      320    _Material_GetBackfaceCulling
               exported name: Material_GetBackfaceCulling
      321    _Material_GetDiffuseColor
               exported name: Material_GetDiffuseColor
      322    _Material_GetEmissiveColor
               exported name: Material_GetEmissiveColor
      323    _Material_GetFogEnable
               exported name: Material_GetFogEnable
      324    _Material_GetGouraudShading
               exported name: Material_GetGouraudShading
      325    _Material_GetLighting
               exported name: Material_GetLighting
      326    _Material_GetMaterialLayer
               exported name: Material_GetMaterialLayer
      327    _Material_GetMaterialType
               exported name: Material_GetMaterialType
      328    _Material_GetMaterialTypeParam
               exported name: Material_GetMaterialTypeParam
      329    _Material_GetNormalizeNormals
               exported name: Material_GetNormalizeNormals
      330    _Material_GetShininess
               exported name: Material_GetShininess
      331    _Material_GetSpecularColor
               exported name: Material_GetSpecularColor
      332    _Material_GetWireframe
               exported name: Material_GetWireframe
      333    _Material_GetZBuffer
               exported name: Material_GetZBuffer
      334    _Material_GetZWriteEnable
               exported name: Material_GetZWriteEnable
      335    _Material_SetAmbientColor
               exported name: Material_SetAmbientColor
      336    _Material_SetBackfaceCulling
               exported name: Material_SetBackfaceCulling
      337    _Material_SetDiffuseColor
               exported name: Material_SetDiffuseColor
      338    _Material_SetEmissiveColor
               exported name: Material_SetEmissiveColor
      339    _Material_SetFogEnable
               exported name: Material_SetFogEnable
      340    _Material_SetGouraudShading
               exported name: Material_SetGouraudShading
      341    _Material_SetLighting
               exported name: Material_SetLighting
      342    _Material_SetMaterialLayer
               exported name: Material_SetMaterialLayer
      343    _Material_SetMaterialType
               exported name: Material_SetMaterialType
      344    _Material_SetMaterialTypeParam
               exported name: Material_SetMaterialTypeParam
      345    _Material_SetNormalizeNormals
               exported name: Material_SetNormalizeNormals
      346    _Material_SetShininess
               exported name: Material_SetShininess
      347    _Material_SetSpecularColor
               exported name: Material_SetSpecularColor
      348    _Material_SetTexture
               exported name: Material_SetTexture
      349    _Material_SetWireframe
               exported name: Material_SetWireframe
      350    _Material_SetZBuffer
               exported name: Material_SetZBuffer
      351    _Material_SetZWriteEnable
               exported name: Material_SetZWriteEnable
      352    _MeshBuffer_Create
               exported name: MeshBuffer_Create
      353    _MeshBuffer_GetBoundingBox
               exported name: MeshBuffer_GetBoundingBox
      354    _MeshBuffer_GetIndex
               exported name: MeshBuffer_GetIndex
      355    _MeshBuffer_GetIndexCount
               exported name: MeshBuffer_GetIndexCount
      356    _MeshBuffer_GetIndices
               exported name: MeshBuffer_GetIndices
      357    _MeshBuffer_GetMaterial
               exported name: MeshBuffer_GetMaterial
      358    _MeshBuffer_GetVertex
               exported name: MeshBuffer_GetVertex
      359    _MeshBuffer_GetVertex2T
               exported name: MeshBuffer_GetVertex2T
      360    _MeshBuffer_GetVertexCount
               exported name: MeshBuffer_GetVertexCount
      361    _MeshBuffer_GetVertexType
               exported name: MeshBuffer_GetVertexType
      362    _MeshBuffer_SetBoundingBox
               exported name: MeshBuffer_SetBoundingBox
      363    _MeshBuffer_SetIndex
               exported name: MeshBuffer_SetIndex
      364    _MeshBuffer_SetIndices
               exported name: MeshBuffer_SetIndices
      365    _MeshBuffer_SetMaterial
               exported name: MeshBuffer_SetMaterial
      366    _MeshBuffer_SetVertex
               exported name: MeshBuffer_SetVertex
      367    _MeshBuffer_SetVertex2T
               exported name: MeshBuffer_SetVertex2T
      368    _MeshCache_AddMesh
               exported name: MeshCache_AddMesh
      369    _MeshCache_Clear
               exported name: MeshCache_Clear
      370    _MeshCache_ClearUnusedMeshes
               exported name: MeshCache_ClearUnusedMeshes
      371    _MeshCache_GetMeshByFilename
               exported name: MeshCache_GetMeshByFilename
      372    _MeshCache_GetMeshByIndex
               exported name: MeshCache_GetMeshByIndex
      373    _MeshCache_GetMeshCount
               exported name: MeshCache_GetMeshCount
      374    _MeshCache_GetMeshFilename
               exported name: MeshCache_GetMeshFilename
      375    _MeshCache_GetMeshFilenameA
               exported name: MeshCache_GetMeshFilenameA
      376    _MeshCache_GetMeshFilenameN
               exported name: MeshCache_GetMeshFilenameN
      377    _MeshCache_GetMeshIndex
               exported name: MeshCache_GetMeshIndex
      378    _MeshCache_GetMeshIndexA
               exported name: MeshCache_GetMeshIndexA
      379    _MeshCache_IsMeshLoaded
               exported name: MeshCache_IsMeshLoaded
      380    _MeshCache_RemoveMesh
               exported name: MeshCache_RemoveMesh
      381    _MeshCache_RemoveMeshA
               exported name: MeshCache_RemoveMeshA
      382    _MeshCache_SetMeshFilename
               exported name: MeshCache_SetMeshFilename
      383    _MeshCache_SetMeshFilenameA
               exported name: MeshCache_SetMeshFilenameA
      384    _MeshCache_SetMeshFilenameN
               exported name: MeshCache_SetMeshFilenameN
      385    _MeshManipulator_CreateMeshUniquePrimitives
               exported name: MeshManipulator_CreateMeshUniquePrimitives
      386    _MeshManipulator_CreateMeshWith2TCoords
               exported name: MeshManipulator_CreateMeshWith2TCoords
      387    _MeshManipulator_CreateMeshWithTangents
               exported name: MeshManipulator_CreateMeshWithTangents
      388    _MeshManipulator_FlipSurfaces
               exported name: MeshManipulator_FlipSurfaces
      389    _MeshManipulator_GetPolyCount
               exported name: MeshManipulator_GetPolyCount
      390    _MeshManipulator_GetPolyCountA
               exported name: MeshManipulator_GetPolyCountA
      391    _MeshManipulator_MakePlanarTextureMapping
               exported name: MeshManipulator_MakePlanarTextureMapping
      392    _MeshManipulator_RecalculateNormals
               exported name: MeshManipulator_RecalculateNormals
      393    _MeshManipulator_ScaleMesh
               exported name: MeshManipulator_ScaleMesh
      394    _MeshManipulator_SetVertexColorAlpha
               exported name: MeshManipulator_SetVertexColorAlpha
      395    _MeshManipulator_SetVertexColors
               exported name: MeshManipulator_SetVertexColors
      396    _MeshManipulator_TransformMesh
               exported name: MeshManipulator_TransformMesh
      397    _Mesh_AddMeshBuffer
               exported name: Mesh_AddMeshBuffer
      398    _Mesh_Create
               exported name: Mesh_Create
      399    _Mesh_GetBoundingBox
               exported name: Mesh_GetBoundingBox
      400    _Mesh_GetMeshBuffer
               exported name: Mesh_GetMeshBuffer
      401    _Mesh_GetMeshBufferCount
               exported name: Mesh_GetMeshBufferCount
      402    _Mesh_SetMaterialFlag
               exported name: Mesh_SetMaterialFlag
      403    _MetaTriangleSelector_AddTriangleSelector
               exported name: MetaTriangleSelector_AddTriangleSelector
      404    _MetaTriangleSelector_RemoveAllTriangleSelectors
               exported name: MetaTriangleSelector_RemoveAllTriangleSelectors
      405    _MetaTriangleSelector_RemoveTriangleSelector
               exported name: MetaTriangleSelector_RemoveTriangleSelector
      406    _Particle_AddAffector
               exported name: Particle_AddAffector
      407    _Particle_AddAffectorA
               exported name: Particle_AddAffectorA
      408    _Particle_CreateBoxEmitter
               exported name: Particle_CreateBoxEmitter
      409    _Particle_CreateFadeOutParticleAffector
               exported name: Particle_CreateFadeOutParticleAffector
      410    _Particle_CreateGravityAffector
               exported name: Particle_CreateGravityAffector
      411    _Particle_CreatePointEmitter
               exported name: Particle_CreatePointEmitter
      412    _Particle_RemoveAllAffectors
               exported name: Particle_RemoveAllAffectors
      413    _Particle_SetEmitter
               exported name: Particle_SetEmitter
      414    _Particle_SetEmitterA
               exported name: Particle_SetEmitterA
      415    _Particle_SetParticleSize
               exported name: Particle_SetParticleSize
      416    _Particle_SetParticlesAreGlobal
               exported name: Particle_SetParticlesAreGlobal
      417    _Pointer_SafeRelease
               exported name: Pointer_SafeRelease
      418    _SParticle_Create
               exported name: SParticle_Create
      419    _SParticle_GetColor
               exported name: SParticle_GetColor
      420    _SParticle_GetEndTime
               exported name: SParticle_GetEndTime
      421    _SParticle_GetPos
               exported name: SParticle_GetPos
      422    _SParticle_GetStartColor
               exported name: SParticle_GetStartColor
      423    _SParticle_GetStartTime
               exported name: SParticle_GetStartTime
      424    _SParticle_GetStartVect
               exported name: SParticle_GetStartVect
      425    _SParticle_GetVect
               exported name: SParticle_GetVect
      426    _SParticle_SetColor
               exported name: SParticle_SetColor
      427    _SParticle_SetEndTime
               exported name: SParticle_SetEndTime
      428    _SParticle_SetPos
               exported name: SParticle_SetPos
      429    _SParticle_SetStartColor
               exported name: SParticle_SetStartColor
      430    _SParticle_SetStartTime
               exported name: SParticle_SetStartTime
      431    _SParticle_SetStartVect
               exported name: SParticle_SetStartVect
      432    _SParticle_SetVect
               exported name: SParticle_SetVect
      433    _SceneCollisionManager_GetCollisionPoint
               exported name: SceneCollisionManager_GetCollisionPoint
      434    _SceneCollisionManager_GetCollisionResultPoint
               exported name: SceneCollisionManager_GetCollisionResultPoint
      435    _SceneCollisionManager_GetRayFromScreenCoordinates
               exported name: SceneCollisionManager_GetRayFromScreenCoordinates
      436    _SceneCollisionManager_GetSceneNodeFromCameraBB
               exported name: SceneCollisionManager_GetSceneNodeFromCameraBB
      437    _SceneCollisionManager_GetSceneNodeFromRayBB
               exported name: SceneCollisionManager_GetSceneNodeFromRayBB
      438    _SceneCollisionManager_GetSceneNodeFromScreenCoordinatesBB
               exported name: SceneCollisionManager_GetSceneNodeFromScreenCoordinatesBB
      439    _SceneCollisionManager_GetScreenCoordinatesFrom3DPosition
               exported name: SceneCollisionManager_GetScreenCoordinatesFrom3DPosition
      440    _SceneManager_AddAnimatedMeshSceneNode
               exported name: SceneManager_AddAnimatedMeshSceneNode
      441    _SceneManager_AddBillboardSceneNode
               exported name: SceneManager_AddBillboardSceneNode
      442    _SceneManager_AddCameraSceneNode
               exported name: SceneManager_AddCameraSceneNode
      443    _SceneManager_AddCameraSceneNodeFPS
               exported name: SceneManager_AddCameraSceneNodeFPS
      444    _SceneManager_AddCameraSceneNodeFPSA
               exported name: SceneManager_AddCameraSceneNodeFPSA
      445    _SceneManager_AddCameraSceneNodeMaya
               exported name: SceneManager_AddCameraSceneNodeMaya
      446    _SceneManager_AddCubeSceneNode
               exported name: SceneManager_AddCubeSceneNode
      447    _SceneManager_AddDummyTransformationSceneNode
               exported name: SceneManager_AddDummyTransformationSceneNode
      448    _SceneManager_AddEmptySceneNode
               exported name: SceneManager_AddEmptySceneNode
      449    _SceneManager_AddHillPlaneMesh
               exported name: SceneManager_AddHillPlaneMesh
      450    _SceneManager_AddLightSceneNode
               exported name: SceneManager_AddLightSceneNode
      451    _SceneManager_AddMeshSceneNode
               exported name: SceneManager_AddMeshSceneNode
      452    _SceneManager_AddOctTreeSceneNode
               exported name: SceneManager_AddOctTreeSceneNode
      453    _SceneManager_AddOctTreeSceneNodeA
               exported name: SceneManager_AddOctTreeSceneNodeA
      454    _SceneManager_AddParticleSystemSceneNode
               exported name: SceneManager_AddParticleSystemSceneNode
      455    _SceneManager_AddSkyBoxSceneNode
               exported name: SceneManager_AddSkyBoxSceneNode
      456    _SceneManager_AddSkyDomeSceneNode
               exported name: SceneManager_AddSkyDomeSceneNode
      457    _SceneManager_AddSphereSceneNode
               exported name: SceneManager_AddSphereSceneNode
      458    _SceneManager_AddTerrainMesh
               exported name: SceneManager_AddTerrainMesh
      459    _SceneManager_AddTerrainSceneNode
               exported name: SceneManager_AddTerrainSceneNode
      460    _SceneManager_AddTextSceneNode
               exported name: SceneManager_AddTextSceneNode
      461    _SceneManager_AddTextSceneNode2
               exported name: SceneManager_AddTextSceneNode2
      462    _SceneManager_AddToDeletionQueue
               exported name: SceneManager_AddToDeletionQueue
      463    _SceneManager_AddWaterSurfaceSceneNode
               exported name: SceneManager_AddWaterSurfaceSceneNode
      464    _SceneManager_Clear
               exported name: SceneManager_Clear
      465    _SceneManager_CreateCollisionResponseAnimator
               exported name: SceneManager_CreateCollisionResponseAnimator
      466    _SceneManager_CreateDeleteAnimator
               exported name: SceneManager_CreateDeleteAnimator
      467    _SceneManager_CreateFlyCircleAnimator
               exported name: SceneManager_CreateFlyCircleAnimator
      468    _SceneManager_CreateFlyStraightAnimator
               exported name: SceneManager_CreateFlyStraightAnimator
      469    _SceneManager_CreateFollowSplineAnimator
               exported name: SceneManager_CreateFollowSplineAnimator
      470    _SceneManager_CreateMetaTriangleSelector
               exported name: SceneManager_CreateMetaTriangleSelector
      471    _SceneManager_CreateNewSceneManager
               exported name: SceneManager_CreateNewSceneManager
      472    _SceneManager_CreateOctTreeTriangleSelector
               exported name: SceneManager_CreateOctTreeTriangleSelector
      473    _SceneManager_CreateRotationAnimator
               exported name: SceneManager_CreateRotationAnimator
      474    _SceneManager_CreateTerrainTriangleSelector
               exported name: SceneManager_CreateTerrainTriangleSelector
      475    _SceneManager_CreateTextureAnimator
               exported name: SceneManager_CreateTextureAnimator
      476    _SceneManager_CreateTriangleSelector
               exported name: SceneManager_CreateTriangleSelector
      477    _SceneManager_CreateTriangleSelectorFromBoundingBox
               exported name: SceneManager_CreateTriangleSelectorFromBoundingBox
      478    _SceneManager_DrawAll
               exported name: SceneManager_DrawAll
      479    _SceneManager_GetActiveCamera
               exported name: SceneManager_GetActiveCamera
      480    _SceneManager_GetGUIEnv
               exported name: SceneManager_GetGUIEnv
      481    _SceneManager_GetMesh
               exported name: SceneManager_GetMesh
      482    _SceneManager_GetMeshCache
               exported name: SceneManager_GetMeshCache
      483    _SceneManager_GetMeshManipulator
               exported name: SceneManager_GetMeshManipulator
      484    _SceneManager_GetRootSceneNode
               exported name: SceneManager_GetRootSceneNode
      485    _SceneManager_GetSceneCollisionManager
               exported name: SceneManager_GetSceneCollisionManager
      486    _SceneManager_GetSceneNodeFromID
               exported name: SceneManager_GetSceneNodeFromID
      487    _SceneManager_GetSceneNodeFromName
               exported name: SceneManager_GetSceneNodeFromName
      488    _SceneManager_GetSceneNodeFromType
               exported name: SceneManager_GetSceneNodeFromType
      489    _SceneManager_GetSceneNodeRenderPass
               exported name: SceneManager_GetSceneNodeRenderPass
      490    _SceneManager_GetShadowColor
               exported name: SceneManager_GetShadowColor
      491    _SceneManager_GetVideoDriver
               exported name: SceneManager_GetVideoDriver
      492    _SceneManager_LoadScene
               exported name: SceneManager_LoadScene
      493    _SceneManager_PostEventFromUser
               exported name: SceneManager_PostEventFromUser
      494    _SceneManager_RegisterNodeForRendering
               exported name: SceneManager_RegisterNodeForRendering
      495    _SceneManager_SaveScene
               exported name: SceneManager_SaveScene
      496    _SceneManager_SetActiveCamera
               exported name: SceneManager_SetActiveCamera
      497    _SceneManager_SetShadowColor
               exported name: SceneManager_SetShadowColor
      498    _SceneNode_AddAnimator
               exported name: SceneNode_AddAnimator
      499    _SceneNode_AddChild
               exported name: SceneNode_AddChild
      500    _SceneNode_GetAbsolutePosition
               exported name: SceneNode_GetAbsolutePosition
      501    _SceneNode_GetAbsoluteTransformation
               exported name: SceneNode_GetAbsoluteTransformation
      502    _SceneNode_GetAutomaticCulling
               exported name: SceneNode_GetAutomaticCulling
      503    _SceneNode_GetBoundingBox
               exported name: SceneNode_GetBoundingBox
      504    _SceneNode_GetChildren
               exported name: SceneNode_GetChildren
      505    _SceneNode_GetChildrenCount
               exported name: SceneNode_GetChildrenCount
      506    _SceneNode_GetDebugDataVisible
               exported name: SceneNode_GetDebugDataVisible
      507    _SceneNode_GetID
               exported name: SceneNode_GetID
      508    _SceneNode_GetMaterial
               exported name: SceneNode_GetMaterial
      509    _SceneNode_GetMaterialCount
               exported name: SceneNode_GetMaterialCount
      510    _SceneNode_GetName
               exported name: SceneNode_GetName
      511    _SceneNode_GetParent
               exported name: SceneNode_GetParent
      512    _SceneNode_GetPosition
               exported name: SceneNode_GetPosition
      513    _SceneNode_GetRelativeTransformation
               exported name: SceneNode_GetRelativeTransformation
      514    _SceneNode_GetRotation
               exported name: SceneNode_GetRotation
      515    _SceneNode_GetScale
               exported name: SceneNode_GetScale
      516    _SceneNode_GetTransformedBoundingBox
               exported name: SceneNode_GetTransformedBoundingBox
      517    _SceneNode_GetTriangleSelector
               exported name: SceneNode_GetTriangleSelector
      518    _SceneNode_GetType
               exported name: SceneNode_GetType
      519    _SceneNode_IsDebugObject
               exported name: SceneNode_IsDebugObject
      520    _SceneNode_IsVisible
               exported name: SceneNode_IsVisible
      521    _SceneNode_OnAnimate
               exported name: SceneNode_OnAnimate
      522    _SceneNode_OnRegisterSceneNode
               exported name: SceneNode_OnRegisterSceneNode
      523    _SceneNode_Remove
               exported name: SceneNode_Remove
      524    _SceneNode_RemoveAll
               exported name: SceneNode_RemoveAll
      525    _SceneNode_RemoveAnimator
               exported name: SceneNode_RemoveAnimator
      526    _SceneNode_RemoveAnimators
               exported name: SceneNode_RemoveAnimators
      527    _SceneNode_RemoveChild
               exported name: SceneNode_RemoveChild
      528    _SceneNode_Render
               exported name: SceneNode_Render
      529    _SceneNode_SetAutomaticCulling
               exported name: SceneNode_SetAutomaticCulling
      530    _SceneNode_SetDebugDataVisible
               exported name: SceneNode_SetDebugDataVisible
      531    _SceneNode_SetID
               exported name: SceneNode_SetID
      532    _SceneNode_SetIsDebugObject
               exported name: SceneNode_SetIsDebugObject
      533    _SceneNode_SetMaterialFlag
               exported name: SceneNode_SetMaterialFlag
      534    _SceneNode_SetMaterialTexture
               exported name: SceneNode_SetMaterialTexture
      535    _SceneNode_SetMaterialType
               exported name: SceneNode_SetMaterialType
      536    _SceneNode_SetName
               exported name: SceneNode_SetName
      537    _SceneNode_SetParent
               exported name: SceneNode_SetParent
      538    _SceneNode_SetPosition
               exported name: SceneNode_SetPosition
      539    _SceneNode_SetRotation
               exported name: SceneNode_SetRotation
      540    _SceneNode_SetScale
               exported name: SceneNode_SetScale
      541    _SceneNode_SetTriangleSelector
               exported name: SceneNode_SetTriangleSelector
      542    _SceneNode_SetVisible
               exported name: SceneNode_SetVisible
      543    _SceneNode_UpdateAbsolutePosition
               exported name: SceneNode_UpdateAbsolutePosition
      544    _ShadowVolume_SetMeshToRenderFrom
               exported name: ShadowVolume_SetMeshToRenderFrom
      545    _SkinnedMesh_AnimateMesh
               exported name: SkinnedMesh_AnimateMesh
      546    _SkinnedMesh_ConvertMeshToTangents
               exported name: SkinnedMesh_ConvertMeshToTangents
      547    _TTFace_Create
               exported name: TTFace_Create
      548    _TTFace_Load
               exported name: TTFace_Load
      549    _TTFont_Attach
               exported name: TTFont_Attach
      550    _TTFont_Create
               exported name: TTFont_Create
      551    _TTFont_SetAntialias
               exported name: TTFont_SetAntialias
      552    _TTFont_SetTransparency
               exported name: TTFont_SetTransparency
      553    _TerrainSceneNode_GetBoundingBox
               exported name: TerrainSceneNode_GetBoundingBox
      554    _TerrainSceneNode_GetBoundingBoxA
               exported name: TerrainSceneNode_GetBoundingBoxA
      555    _TerrainSceneNode_GetHeight
               exported name: TerrainSceneNode_GetHeight
      556    _TerrainSceneNode_GetIndexCount
               exported name: TerrainSceneNode_GetIndexCount
      557    _TerrainSceneNode_GetMesh
               exported name: TerrainSceneNode_GetMesh
      558    _TerrainSceneNode_GetMeshBufferForLOD
               exported name: TerrainSceneNode_GetMeshBufferForLOD
      559    _TerrainSceneNode_GetTerrainCenter
               exported name: TerrainSceneNode_GetTerrainCenter
      560    _TerrainSceneNode_OverrideLODDistance
               exported name: TerrainSceneNode_OverrideLODDistance
      561    _TerrainSceneNode_ScaleTexture
               exported name: TerrainSceneNode_ScaleTexture
      562    _TerrainSceneNode_SetCameraMovementDelta
               exported name: TerrainSceneNode_SetCameraMovementDelta
      563    _TerrainSceneNode_SetCameraRotationDelta
               exported name: TerrainSceneNode_SetCameraRotationDelta
      564    _TerrainSceneNode_SetDynamicSelectorUpdate
               exported name: TerrainSceneNode_SetDynamicSelectorUpdate
      565    _TerrainSceneNode_SetLODOfPatch
               exported name: TerrainSceneNode_SetLODOfPatch
      566    _TextSceneNode_SetText
               exported name: TextSceneNode_SetText
      567    _TextSceneNode_SetTextColor
               exported name: TextSceneNode_SetTextColor
      568    _Texture_GetColorFormat
               exported name: Texture_GetColorFormat
      569    _Texture_GetDriverType
               exported name: Texture_GetDriverType
      570    _Texture_GetName
               exported name: Texture_GetName
      571    _Texture_GetOriginalSize
               exported name: Texture_GetOriginalSize
      572    _Texture_GetPitch
               exported name: Texture_GetPitch
      573    _Texture_Lock
               exported name: Texture_Lock
      574    _Texture_RegenerateMipMapLevels
               exported name: Texture_RegenerateMipMapLevels
      575    _Texture_UnLock
               exported name: Texture_UnLock
      576    _Timer_GetRealTime
               exported name: Timer_GetRealTime
      577    _Timer_GetSpeed
               exported name: Timer_GetSpeed
      578    _Timer_GetTime
               exported name: Timer_GetTime
      579    _Timer_IsStopped
               exported name: Timer_IsStopped
      580    _Timer_SetSpeed
               exported name: Timer_SetSpeed
      581    _Timer_SetTime
               exported name: Timer_SetTime
      582    _Timer_Start
               exported name: Timer_Start
      583    _Timer_Stop
               exported name: Timer_Stop
      584    _Timer_Tick
               exported name: Timer_Tick
      585    _VF_GetBoundingBox
               exported name: VF_GetBoundingBox
      586    _VF_GetFarLeftDown
               exported name: VF_GetFarLeftDown
      587    _VF_GetFarLeftUp
               exported name: VF_GetFarLeftUp
      588    _VF_GetFarRightDown
               exported name: VF_GetFarRightDown
      589    _VF_GetFarRightUp
               exported name: VF_GetFarRightUp
      590    _VF_RecalculateBoundingBox
               exported name: VF_RecalculateBoundingBox
      591    _VF_Transform
               exported name: VF_Transform
      592    _Vertices_CreateVertex
               exported name: Vertices_CreateVertex
      593    _Vertices_CreateVertex2TCoords
               exported name: Vertices_CreateVertex2TCoords
      594    _Vertices_CreateVertexTangents
               exported name: Vertices_CreateVertexTangents
      595    _Vertices_GetBinormal
               exported name: Vertices_GetBinormal
      596    _Vertices_GetColor
               exported name: Vertices_GetColor
      597    _Vertices_GetNormal
               exported name: Vertices_GetNormal
      598    _Vertices_GetPos
               exported name: Vertices_GetPos
      599    _Vertices_GetTCoords
               exported name: Vertices_GetTCoords
      600    _Vertices_GetTCoords2
               exported name: Vertices_GetTCoords2
      601    _Vertices_GetTangent
               exported name: Vertices_GetTangent
      602    _Vertices_GetType
               exported name: Vertices_GetType
      603    _Vertices_SetBinormal
               exported name: Vertices_SetBinormal
      604    _Vertices_SetColor
               exported name: Vertices_SetColor
      605    _Vertices_SetNormal
               exported name: Vertices_SetNormal
      606    _Vertices_SetPos
               exported name: Vertices_SetPos
      607    _Vertices_SetTCoords
               exported name: Vertices_SetTCoords
      608    _Vertices_SetTCoords2
               exported name: Vertices_SetTCoords2
      609    _Vertices_SetTangent
               exported name: Vertices_SetTangent
      610    _VideoDriver_AddTexture
               exported name: VideoDriver_AddTexture
      611    _VideoDriver_AddTextureFromImage
               exported name: VideoDriver_AddTextureFromImage
      612    _VideoDriver_BeginScene
               exported name: VideoDriver_BeginScene
      613    _VideoDriver_ClearZBuffer
               exported name: VideoDriver_ClearZBuffer
      614    _VideoDriver_CreateImageFromFile
               exported name: VideoDriver_CreateImageFromFile
      615    _VideoDriver_CreateRenderTargetTexture
               exported name: VideoDriver_CreateRenderTargetTexture
      616    _VideoDriver_CreateScreenshot
               exported name: VideoDriver_CreateScreenshot
      617    _VideoDriver_DeleteAllDynamicLights
               exported name: VideoDriver_DeleteAllDynamicLights
      618    _VideoDriver_Draw2DImage
               exported name: VideoDriver_Draw2DImage
      619    _VideoDriver_Draw2DImageA
               exported name: VideoDriver_Draw2DImageA
      620    _VideoDriver_Draw2DImageB
               exported name: VideoDriver_Draw2DImageB
      621    _VideoDriver_Draw2DImageC
               exported name: VideoDriver_Draw2DImageC
      622    _VideoDriver_Draw2DImageD
               exported name: VideoDriver_Draw2DImageD
      623    _VideoDriver_Draw2DLine
               exported name: VideoDriver_Draw2DLine
      624    _VideoDriver_Draw2DPolygon
               exported name: VideoDriver_Draw2DPolygon
      625    _VideoDriver_Draw2DRectangle
               exported name: VideoDriver_Draw2DRectangle
      626    _VideoDriver_Draw3DBox
               exported name: VideoDriver_Draw3DBox
      627    _VideoDriver_Draw3DLine
               exported name: VideoDriver_Draw3DLine
      628    _VideoDriver_Draw3DTriangle
               exported name: VideoDriver_Draw3DTriangle
      629    _VideoDriver_DrawIndexedTriangleFan
               exported name: VideoDriver_DrawIndexedTriangleFan
      630    _VideoDriver_DrawIndexedTriangleFanA
               exported name: VideoDriver_DrawIndexedTriangleFanA
      631    _VideoDriver_DrawIndexedTriangleFanT
               exported name: VideoDriver_DrawIndexedTriangleFanT
      632    _VideoDriver_DrawIndexedTriangleList
               exported name: VideoDriver_DrawIndexedTriangleList
      633    _VideoDriver_DrawIndexedTriangleListA
               exported name: VideoDriver_DrawIndexedTriangleListA
      634    _VideoDriver_DrawIndexedTriangleListT
               exported name: VideoDriver_DrawIndexedTriangleListT
      635    _VideoDriver_DrawMeshBuffer
               exported name: VideoDriver_DrawMeshBuffer
      636    _VideoDriver_DrawVertexPrimitiveList
               exported name: VideoDriver_DrawVertexPrimitiveList
      637    _VideoDriver_EndScene
               exported name: VideoDriver_EndScene
      638    _VideoDriver_EndSceneA
               exported name: VideoDriver_EndSceneA
      639    _VideoDriver_GetDriverType
               exported name: VideoDriver_GetDriverType
      640    _VideoDriver_GetFPS
               exported name: VideoDriver_GetFPS
      641    _VideoDriver_GetGPUProgrammingServices
               exported name: VideoDriver_GetGPUProgrammingServices
      642    _VideoDriver_GetPrimitiveCountDrawn
               exported name: VideoDriver_GetPrimitiveCountDrawn
      643    _VideoDriver_GetScreenSize
               exported name: VideoDriver_GetScreenSize
      644    _VideoDriver_GetTexture
               exported name: VideoDriver_GetTexture
      645    _VideoDriver_GetTextureByIndex
               exported name: VideoDriver_GetTextureByIndex
      646    _VideoDriver_GetTextureCount
               exported name: VideoDriver_GetTextureCount
      647    _VideoDriver_GetTextureCreationFlag
               exported name: VideoDriver_GetTextureCreationFlag
      648    _VideoDriver_GetTransform
               exported name: VideoDriver_GetTransform
      649    _VideoDriver_GetViewPort
               exported name: VideoDriver_GetViewPort
      650    _VideoDriver_MakeColorKeyTexture
               exported name: VideoDriver_MakeColorKeyTexture
      651    _VideoDriver_MakeColorKeyTextureA
               exported name: VideoDriver_MakeColorKeyTextureA
      652    _VideoDriver_MakeNormalMapTexture
               exported name: VideoDriver_MakeNormalMapTexture
      653    _VideoDriver_QueryFeature
               exported name: VideoDriver_QueryFeature
      654    _VideoDriver_RemoveAllTextures
               exported name: VideoDriver_RemoveAllTextures
      655    _VideoDriver_RemoveTexture
               exported name: VideoDriver_RemoveTexture
      656    _VideoDriver_SetAmbientLight
               exported name: VideoDriver_SetAmbientLight
      657    _VideoDriver_SetFog
               exported name: VideoDriver_SetFog
      658    _VideoDriver_SetMaterial
               exported name: VideoDriver_SetMaterial
      659    _VideoDriver_SetRenderTarget
               exported name: VideoDriver_SetRenderTarget
      660    _VideoDriver_SetTextureFlag
               exported name: VideoDriver_SetTextureFlag
      661    _VideoDriver_SetTransform
               exported name: VideoDriver_SetTransform
      662    _VideoDriver_SetViewPort
               exported name: VideoDriver_SetViewPort
      663    _VideoDriver_WriteImageToFile
               exported name: VideoDriver_WriteImageToFile
      664    _VideoModeList_GetDesktopDepth
               exported name: VideoModeList_GetDesktopDepth
      665    _VideoModeList_GetDesktopResolution
               exported name: VideoModeList_GetDesktopResolution
      666    _VideoModeList_GetVideoModeCount
               exported name: VideoModeList_GetVideoModeCount
      667    _VideoModeList_GetVideoModeDepth
               exported name: VideoModeList_GetVideoModeDepth
      668    _VideoModeList_GetVideoModeResolution
               exported name: VideoModeList_GetVideoModeResolution
      669    _freeUMMemory
               exported name: freeUMMemory
